
========================================================================

** ELF Header Information

    File Name: E:\Arm_M33\armstar_m33_verify\armstar_m33\StarNoSecure\Output\Objects\StarNoSecure.axf

    Machine class: ELFCLASS32 (32-bit)
    Data encoding: ELFDATA2LSB (Little endian)
    Header version: EV_CURRENT (Current version)
    Operating System ABI: none
    ABI Version: 0
    File Type: ET_EXEC (Executable) (2)
    Machine: EM_ARM (ARM)

    Image Entry point: 0x001000c1
    Flags: EF_ARM_HASENTRY (0x05000002)

    ARM ELF revision: 5 (ABI version 2)

    Conforms to Base float procedure-call standard

    Built with
    Component: ARM Compiler 6.16 Tool: armasm [5dfea300]
    Component: ARM Compiler 6.16 Tool: armlink [5dfeaa00]

    Header size: 52 bytes (0x34)
    Program header entry size: 32 bytes (0x20)
    Section header entry size: 40 bytes (0x28)

    Program header entries: 1
    Section header entries: 21

    Program header offset: 90960 (0x00016350)
    Section header offset: 90992 (0x00016370)

    Section header string table index: 20

========================================================================

** Program header #0 (PT_LOAD) [PF_X + PF_W + PF_R + PF_ARM_ENTRY]
    Size : 191456 bytes (19392 bytes in file)
    Virtual address: 0x00100000 (Alignment 32)


========================================================================

** Section #1 'ER_IROM_NS_PRIVILEGED' (SHT_PROGBITS) [SHF_ALLOC]
    Size   : 192 bytes (alignment 4)
    Address: 0x00100000


** Section #2 'ER_IROM_NS_PRIVILEGED_ALIGN' (SHT_NOBITS) [SHF_ALLOC + SHF_WRITE]
    Size   : 0 bytes (alignment 32)
    Address: 0x001000c0


** Section #3 'ER_IROM_NS_FREERTOS_SYSTEM_CALLS_ALIGN' (SHT_NOBITS) [SHF_ALLOC + SHF_WRITE]
    Size   : 0 bytes (alignment 32)
    Address: 0x001000c0


** Section #4 'ER_IROM_NS_UNPRIVILEGED' (SHT_PROGBITS) [SHF_ALLOC + SHF_EXECINSTR]
    Size   : 19160 bytes (alignment 32)
    Address: 0x001000c0

    $t
    !!!main
    __main
        0x001000c0:    f000f802    ....    BL       __scatterload ; 0x1000c8
        0x001000c4:    f000f892    ....    BL       __rt_entry ; 0x1001ec
    !!!scatter
    __scatterload
    __scatterload_rt2
    __scatterload_rt2_thumb_only
        0x001000c8:    a00a        ..      ADR      r0,{pc}+0x2c ; 0x1000f4
        0x001000ca:    e8900c00    ....    LDM      r0,{r10,r11}
        0x001000ce:    4482        .D      ADD      r10,r10,r0
        0x001000d0:    4483        .D      ADD      r11,r11,r0
        0x001000d2:    f1aa0701    ....    SUB      r7,r10,#1
    __scatterload_null
        0x001000d6:    45da        .E      CMP      r10,r11
        0x001000d8:    d101        ..      BNE      0x1000de ; __scatterload_null + 8
        0x001000da:    f000f887    ....    BL       __rt_entry ; 0x1001ec
        0x001000de:    f2af0e09    ....    ADR      lr,{pc}-7 ; 0x1000d7
        0x001000e2:    e8ba000f    ....    LDM      r10!,{r0-r3}
        0x001000e6:    f0130f01    ....    TST      r3,#1
        0x001000ea:    bf18        ..      IT       NE
        0x001000ec:    1afb        ..      SUBNE    r3,r7,r3
        0x001000ee:    f0430301    C...    ORR      r3,r3,#1
        0x001000f2:    4718        .G      BX       r3
    $d
        0x001000f4:    00004958    XI..    DCD    18776
        0x001000f8:    00004978    xI..    DCD    18808
    $t
    !!handler_copy
    __scatterload_copy
        0x001000fc:    3a10        .:      SUBS     r2,r2,#0x10
        0x001000fe:    bf24        $.      ITT      CS
        0x00100100:    c878        x.      LDMCS    r0!,{r3-r6}
        0x00100102:    c178        x.      STMCS    r1!,{r3-r6}
        0x00100104:    d8fa        ..      BHI      __scatterload_copy ; 0x1000fc
        0x00100106:    0752        R.      LSLS     r2,r2,#29
        0x00100108:    bf24        $.      ITT      CS
        0x0010010a:    c830        0.      LDMCS    r0!,{r4,r5}
        0x0010010c:    c130        0.      STMCS    r1!,{r4,r5}
        0x0010010e:    bf44        D.      ITT      MI
        0x00100110:    6804        .h      LDRMI    r4,[r0,#0]
        0x00100112:    600c        .`      STRMI    r4,[r1,#0]
        0x00100114:    4770        pG      BX       lr
        0x00100116:    0000        ..      MOVS     r0,r0
    !!handler_zi
    __scatterload_zeroinit
        0x00100118:    2300        .#      MOVS     r3,#0
        0x0010011a:    2400        .$      MOVS     r4,#0
        0x0010011c:    2500        .%      MOVS     r5,#0
        0x0010011e:    2600        .&      MOVS     r6,#0
        0x00100120:    3a10        .:      SUBS     r2,r2,#0x10
        0x00100122:    bf28        (.      IT       CS
        0x00100124:    c178        x.      STMCS    r1!,{r3-r6}
        0x00100126:    d8fb        ..      BHI      0x100120 ; __scatterload_zeroinit + 8
        0x00100128:    0752        R.      LSLS     r2,r2,#29
        0x0010012a:    bf28        (.      IT       CS
        0x0010012c:    c130        0.      STMCS    r1!,{r4,r5}
        0x0010012e:    bf48        H.      IT       MI
        0x00100130:    600b        .`      STRMI    r3,[r1,#0]
        0x00100132:    4770        pG      BX       lr
    .ARM.Collect$$_printf_percent$$00000001
    .ARM.Collect$$_printf_percent$$00000000
    _printf_n
    _printf_percent
        0x00100134:    296e        n)      CMP      r1,#0x6e
        0x00100136:    f00081b3    ....    BEQ.W    _printf_charcount ; 0x1004a0
    .ARM.Collect$$_printf_percent$$00000002
    _printf_p
        0x0010013a:    2970        p)      CMP      r1,#0x70
        0x0010013c:    f00082fd    ....    BEQ.W    _printf_hex_ptr ; 0x10073a
    .ARM.Collect$$_printf_percent$$00000003
    _printf_f
        0x00100140:    2966        f)      CMP      r1,#0x66
        0x00100142:    f0048320    .. .    BEQ.W    _printf_fp_dec ; 0x104786
    .ARM.Collect$$_printf_percent$$00000004
    _printf_e
        0x00100146:    2965        e)      CMP      r1,#0x65
        0x00100148:    f004831d    ....    BEQ.W    _printf_fp_dec ; 0x104786
    .ARM.Collect$$_printf_percent$$00000005
    _printf_g
        0x0010014c:    2967        g)      CMP      r1,#0x67
        0x0010014e:    f004831a    ....    BEQ.W    _printf_fp_dec ; 0x104786
    .ARM.Collect$$_printf_percent$$00000006
    _printf_a
        0x00100152:    2961        a)      CMP      r1,#0x61
        0x00100154:    f0048319    ....    BEQ.W    _printf_fp_hex ; 0x10478a
    .ARM.Collect$$_printf_percent$$00000007
    _printf_ll
        0x00100158:    6803        .h      LDR      r3,[r0,#0]
        0x0010015a:    0a1b        ..      LSRS     r3,r3,#8
        0x0010015c:    bf28        (.      IT       CS
        0x0010015e:    f0410180    A...    ORRCS    r1,r1,#0x80
    .ARM.Collect$$_printf_percent$$00000008
    _printf_i
        0x00100162:    2969        i)      CMP      r1,#0x69
        0x00100164:    f0008160    ..`.    BEQ.W    _printf_int_dec ; 0x100428
    .ARM.Collect$$_printf_percent$$00000009
    _printf_d
        0x00100168:    2964        d)      CMP      r1,#0x64
        0x0010016a:    f000815d    ..].    BEQ.W    _printf_int_dec ; 0x100428
    .ARM.Collect$$_printf_percent$$0000000A
    _printf_u
        0x0010016e:    2975        u)      CMP      r1,#0x75
        0x00100170:    f000815a    ..Z.    BEQ.W    _printf_int_dec ; 0x100428
    .ARM.Collect$$_printf_percent$$0000000B
    _printf_o
        0x00100174:    296f        o)      CMP      r1,#0x6f
        0x00100176:    f000828b    ....    BEQ.W    _printf_int_oct ; 0x100690
    .ARM.Collect$$_printf_percent$$0000000C
    _printf_x
        0x0010017a:    2978        x)      CMP      r1,#0x78
        0x0010017c:    f00082c9    ....    BEQ.W    _printf_int_hex ; 0x100712
    .ARM.Collect$$_printf_percent$$0000000D
    _printf_lli
        0x00100180:    29e9        .)      CMP      r1,#0xe9
        0x00100182:    f0008225    ..%.    BEQ.W    _printf_longlong_dec ; 0x1005d0
    .ARM.Collect$$_printf_percent$$0000000E
    _printf_lld
        0x00100186:    29e4        .)      CMP      r1,#0xe4
        0x00100188:    f0008222    ..".    BEQ.W    _printf_longlong_dec ; 0x1005d0
    .ARM.Collect$$_printf_percent$$0000000F
    _printf_llu
        0x0010018c:    29f5        .)      CMP      r1,#0xf5
        0x0010018e:    f000821f    ....    BEQ.W    _printf_longlong_dec ; 0x1005d0
    .ARM.Collect$$_printf_percent$$00000010
    _printf_llo
        0x00100192:    29ef        .)      CMP      r1,#0xef
        0x00100194:    f0008288    ....    BEQ.W    _printf_ll_oct ; 0x1006a8
    .ARM.Collect$$_printf_percent$$00000011
    _printf_llx
        0x00100198:    29f8        .)      CMP      r1,#0xf8
        0x0010019a:    f00082c8    ....    BEQ.W    _printf_ll_hex ; 0x10072e
    .ARM.Collect$$_printf_percent$$00000012
    _printf_l
        0x0010019e:    6803        .h      LDR      r3,[r0,#0]
        0x001001a0:    09db        ..      LSRS     r3,r3,#7
        0x001001a2:    bf28        (.      IT       CS
        0x001001a4:    f0410180    A...    ORRCS    r1,r1,#0x80
    .ARM.Collect$$_printf_percent$$00000013
    _printf_c
        0x001001a8:    2963        c)      CMP      r1,#0x63
        0x001001aa:    f00087c9    ....    BEQ.W    _printf_char ; 0x101140
    .ARM.Collect$$_printf_percent$$00000014
    _printf_s
        0x001001ae:    2973        s)      CMP      r1,#0x73
        0x001001b0:    f00087ce    ....    BEQ.W    _printf_string ; 0x101150
    .ARM.Collect$$_printf_percent$$00000015
    _printf_lc
        0x001001b4:    29e3        .)      CMP      r1,#0xe3
        0x001001b6:    f00087d9    ....    BEQ.W    _printf_wchar ; 0x10116c
    .ARM.Collect$$_printf_percent$$00000016
    _printf_ls
        0x001001ba:    29f3        .)      CMP      r1,#0xf3
        0x001001bc:    f00087de    ....    BEQ.W    _printf_wstring ; 0x10117c
    .ARM.Collect$$_printf_percent$$00000017
    _printf_percent_end
        0x001001c0:    2000        .       MOVS     r0,#0
        0x001001c2:    4770        pG      BX       lr
    .ARM.Collect$$libinit$$00000000
    __rt_lib_init
        0x001001c4:    b51f        ..      PUSH     {r0-r4,lr}
    .ARM.Collect$$libinit$$00000001
    __rt_lib_init_fp_1
        0x001001c6:    f004fad1    ....    BL       _fp_init ; 0x10476c
    .ARM.Collect$$libinit$$00000004
    .ARM.Collect$$libinit$$0000000A
    .ARM.Collect$$libinit$$0000000C
    .ARM.Collect$$libinit$$0000000E
    .ARM.Collect$$libinit$$0000000F
    __rt_lib_init_heap_1
    __rt_lib_init_lc_common
    __rt_lib_init_preinit_1
    __rt_lib_init_rand_1
    __rt_lib_init_user_alloc_1
        0x001001ca:    f001f82d    ..-.    BL       __rt_locale ; 0x101228
        0x001001ce:    0004        ..      MOVS     r4,r0
    .ARM.Collect$$libinit$$00000011
    .ARM.Collect$$libinit$$00000012
    __rt_lib_init_lc_collate_1
    __rt_lib_init_lc_ctype_2
        0x001001d0:    2000        .       MOVS     r0,#0
        0x001001d2:    2100        .!      MOVS     r1,#0
        0x001001d4:    f004fab4    ....    BL       _get_lc_ctype ; 0x104740
        0x001001d8:    1c40        @.      ADDS     r0,r0,#1
        0x001001da:    6060        ``      STR      r0,[r4,#4]
    .ARM.Collect$$libinit$$00000013
    .ARM.Collect$$libinit$$00000015
    .ARM.Collect$$libinit$$00000016
    __rt_lib_init_lc_ctype_1
    __rt_lib_init_lc_monetary_1
    __rt_lib_init_lc_numeric_2
        0x001001dc:    2000        .       MOVS     r0,#0
        0x001001de:    2100        .!      MOVS     r1,#0
        0x001001e0:    f004fa98    ....    BL       _get_lc_numeric ; 0x104714
        0x001001e4:    60e0        .`      STR      r0,[r4,#0xc]
    .ARM.Collect$$libinit$$00000017
    .ARM.Collect$$libinit$$00000019
    .ARM.Collect$$libinit$$0000001B
    .ARM.Collect$$libinit$$0000001D
    .ARM.Collect$$libinit$$0000001F
    .ARM.Collect$$libinit$$00000021
    .ARM.Collect$$libinit$$00000023
    .ARM.Collect$$libinit$$00000025
    .ARM.Collect$$libinit$$0000002C
    .ARM.Collect$$libinit$$0000002E
    .ARM.Collect$$libinit$$00000030
    .ARM.Collect$$libinit$$00000032
    .ARM.Collect$$libinit$$00000033
    __rt_lib_init_alloca_1
    __rt_lib_init_argv_1
    __rt_lib_init_atexit_1
    __rt_lib_init_clock_1
    __rt_lib_init_cpp_1
    __rt_lib_init_exceptions_1
    __rt_lib_init_fp_trap_1
    __rt_lib_init_getenv_1
    __rt_lib_init_lc_numeric_1
    __rt_lib_init_lc_time_1
    __rt_lib_init_return
    __rt_lib_init_signal_1
    __rt_lib_init_stdio_1
        0x001001e6:    bd1f        ..      POP      {r0-r4,pc}
    .ARM.Collect$$libshutdown$$00000000
    __rt_lib_shutdown
        0x001001e8:    b510        ..      PUSH     {r4,lr}
    .ARM.Collect$$libshutdown$$00000002
    .ARM.Collect$$libshutdown$$00000004
    .ARM.Collect$$libshutdown$$00000007
    .ARM.Collect$$libshutdown$$0000000A
    .ARM.Collect$$libshutdown$$0000000C
    .ARM.Collect$$libshutdown$$0000000F
    .ARM.Collect$$libshutdown$$00000010
    __rt_lib_shutdown_cpp_1
    __rt_lib_shutdown_fp_trap_1
    __rt_lib_shutdown_heap_1
    __rt_lib_shutdown_return
    __rt_lib_shutdown_signal_1
    __rt_lib_shutdown_stdio_1
    __rt_lib_shutdown_user_alloc_1
        0x001001ea:    bd10        ..      POP      {r4,pc}
    .ARM.Collect$$rtentry$$00000000
    .ARM.Collect$$rtentry$$00000002
    .ARM.Collect$$rtentry$$00000004
    __rt_entry
    __rt_entry_presh_1
    __rt_entry_sh
        0x001001ec:    f000ffee    ....    BL       __user_setup_stackheap ; 0x1011cc
        0x001001f0:    4611        .F      MOV      r1,r2
    .ARM.Collect$$rtentry$$00000009
    .ARM.Collect$$rtentry$$0000000A
    __rt_entry_li
    __rt_entry_postsh_1
        0x001001f2:    f7ffffe7    ....    BL       __rt_lib_init ; 0x1001c4
    .ARM.Collect$$rtentry$$0000000C
    .ARM.Collect$$rtentry$$0000000D
    __rt_entry_main
    __rt_entry_postli_1
        0x001001f6:    f001fb43    ..C.    BL       main ; 0x101880
        0x001001fa:    f001f8cb    ....    BL       exit ; 0x101394
    .ARM.Collect$$rtexit$$00000000
    __rt_exit
        0x001001fe:    b403        ..      PUSH     {r0,r1}
    .ARM.Collect$$rtexit$$00000002
    .ARM.Collect$$rtexit$$00000003
    __rt_exit_ls
    __rt_exit_prels_1
        0x00100200:    f7fffff2    ....    BL       __rt_lib_shutdown ; 0x1001e8
    .ARM.Collect$$rtexit$$00000004
    __rt_exit_exit
        0x00100204:    bc03        ..      POP      {r0,r1}
        0x00100206:    f001f92b    ..+.    BL       _sys_exit ; 0x101460
        0x0010020a:    0000        ..      MOVS     r0,r0
    .text
    $v0
    Reset_Handler
        0x0010020c:    4819        .H      LDR      r0,[pc,#100] ; [0x100274] = 0x101621
        0x0010020e:    4780        .G      BLX      r0
        0x00100210:    4819        .H      LDR      r0,[pc,#100] ; [0x100278] = 0x10021d
        0x00100212:    4780        .G      BLX      r0
        0x00100214:    4819        .H      LDR      r0,[pc,#100] ; [0x10027c] = 0x100237
        0x00100216:    4780        .G      BLX      r0
        0x00100218:    4819        .H      LDR      r0,[pc,#100] ; [0x100280] = 0x101881
        0x0010021a:    4700        .G      BX       r0
    _sysboot_copy_data_to_ram
        0x0010021c:    4819        .H      LDR      r0,[pc,#100] ; [0x100284] = 0x104ba0
        0x0010021e:    491a        .I      LDR      r1,[pc,#104] ; [0x100288] = 0x20100000
        0x00100220:    4a1a        .J      LDR      r2,[pc,#104] ; [0x10028c] = 0
        0x00100222:    460b        .F      MOV      r3,r1
        0x00100224:    4413        .D      ADD      r3,r3,r2
        0x00100226:    4299        .B      CMP      r1,r3
        0x00100228:    bf3c        <.      ITT      CC
        0x0010022a:    f8504b04    P..K    LDRCC    r4,[r0],#4
        0x0010022e:    f8414b04    A..K    STRCC    r4,[r1],#4
        0x00100232:    d3f8        ..      BCC      0x100226 ; _sysboot_copy_data_to_ram + 10
        0x00100234:    4770        pG      BX       lr
    _sysboot_zi_init
        0x00100236:    4816        .H      LDR      r0,[pc,#88] ; [0x100290] = 0x20100020
        0x00100238:    4916        .I      LDR      r1,[pc,#88] ; [0x100294] = 0x2a020
        0x0010023a:    eb010300    ....    ADD      r3,r1,r0
        0x0010023e:    4604        .F      MOV      r4,r0
        0x00100240:    f04f0200    O...    MOV      r2,#0
        0x00100244:    429c        .B      CMP      r4,r3
        0x00100246:    bf38        8.      IT       CC
        0x00100248:    f8442b04    D..+    STRCC    r2,[r4],#4
        0x0010024c:    d3fa        ..      BCC      0x100244 ; _sysboot_zi_init + 14
        0x0010024e:    4770        pG      BX       lr
    NMI_Handler
        0x00100250:    e7fe        ..      B        NMI_Handler ; 0x100250
    HardFault_Handler
        0x00100252:    e7fe        ..      B        HardFault_Handler ; 0x100252
    MemManage_Handler
        0x00100254:    e7fe        ..      B        MemManage_Handler ; 0x100254
    BusFault_Handler
        0x00100256:    e7fe        ..      B        BusFault_Handler ; 0x100256
    UsageFault_Handler
        0x00100258:    e7fe        ..      B        UsageFault_Handler ; 0x100258
    SecureFault_Handler
        0x0010025a:    e7fe        ..      B        SecureFault_Handler ; 0x10025a
        0x0010025c:    e7fe        ..      B        0x10025c ; SecureFault_Handler + 2
    DebugMon_Handler
        0x0010025e:    e7fe        ..      B        DebugMon_Handler ; 0x10025e
        0x00100260:    e7fe        ..      B        0x100260 ; DebugMon_Handler + 2
        0x00100262:    e7fe        ..      B        0x100262 ; DebugMon_Handler + 4
    AACI_IRQHandler
    CAN_IRQHandler
    CHLCD_IRQHandler
    CLCD_IRQHandler
    CPU_CLCD_IRQHandler
    ENET_IRQHandler
    FLEXRAY_IRQHandler
    I2C_IRQHandler
    LIN_IRQHandler
    MCIA_IRQHandler
    MCIB_IRQHandler
    RTC_IRQHandler
    SPI_IRQHandler
    TIM0_IRQHandler
    TIM2_IRQHandler
    UART0_IRQHandler
    UART1_IRQHandler
    UART2_IRQHandler
    UART3_IRQHandler
    UART4_IRQHandler
    USBDC_IRQHandler
    USBHC_IRQHandler
    WDT_IRQHandler
        0x00100264:    e7fe        ..      B        AACI_IRQHandler ; 0x100264
    $d
        0x00100266:    0000        ..      DCW    0
    $t
    __user_initial_stackheap
        0x00100268:    480b        .H      LDR      r0,[pc,#44] ; [0x100298] = 0x20119840
        0x0010026a:    490c        .I      LDR      r1,[pc,#48] ; [0x10029c] = 0x2012a040
        0x0010026c:    4a0c        .J      LDR      r2,[pc,#48] ; [0x1002a0] = 0x20129840
        0x0010026e:    4b0d        .K      LDR      r3,[pc,#52] ; [0x1002a4] = 0x20129840
        0x00100270:    4770        pG      BX       lr
    $d
        0x00100272:    0000        ..      DCW    0
        0x00100274:    00101621    !...    DCD    1054241
        0x00100278:    0010021d    ....    DCD    1049117
        0x0010027c:    00100237    7...    DCD    1049143
        0x00100280:    00101881    ....    DCD    1054849
        0x00100284:    00104ba0    .K..    DCD    1067936
        0x00100288:    20100000    ...     DCD    537919488
        0x0010028c:    00000000    ....    DCD    0
        0x00100290:    20100020     ..     DCD    537919520
        0x00100294:    0002a020     ...    DCD    172064
        0x00100298:    20119840    @..     DCD    538024000
        0x0010029c:    2012a040    @..     DCD    538091584
        0x001002a0:    20129840    @..     DCD    538089536
        0x001002a4:    20129840    @..     DCD    538089536
    $t
    .text
    vsnprintf
        0x001002a8:    b57c        |.      PUSH     {r2-r6,lr}
        0x001002aa:    461d        .F      MOV      r5,r3
        0x001002ac:    4616        .F      MOV      r6,r2
        0x001002ae:    000c        ..      MOVS     r4,r1
        0x001002b0:    9000        ..      STR      r0,[sp,#0]
        0x001002b2:    d001        ..      BEQ      0x1002b8 ; vsnprintf + 16
        0x001002b4:    4420         D      ADD      r0,r0,r4
        0x001002b6:    1e40        @.      SUBS     r0,r0,#1
        0x001002b8:    4b07        .K      LDR      r3,[pc,#28] ; [0x1002d8] = 0x245
        0x001002ba:    447b        {D      ADD      r3,r3,pc
        0x001002bc:    462a        *F      MOV      r2,r5
        0x001002be:    4669        iF      MOV      r1,sp
        0x001002c0:    9001        ..      STR      r0,[sp,#4]
        0x001002c2:    4630        0F      MOV      r0,r6
        0x001002c4:    f000f905    ....    BL       _printf_char_common ; 0x1004d2
        0x001002c8:    4605        .F      MOV      r5,r0
        0x001002ca:    b11c        ..      CBZ      r4,0x1002d4 ; vsnprintf + 44
        0x001002cc:    2000        .       MOVS     r0,#0
        0x001002ce:    4669        iF      MOV      r1,sp
        0x001002d0:    f000f912    ....    BL       _sputc ; 0x1004f8
        0x001002d4:    4628        (F      MOV      r0,r5
        0x001002d6:    bd7c        |.      POP      {r2-r6,pc}
    $d
        0x001002d8:    00000245    E...    DCD    581
        0x001002dc:    00000000    ....    DCD    0
    $t
    .text
    strcmp
        0x001002e0:    b430        0.      PUSH     {r4,r5}
        0x001002e2:    f04f3c01    O..<    MOV      r12,#0x1010101
        0x001002e6:    f8502b04    P..+    LDR      r2,[r0],#4
        0x001002ea:    f8513b04    Q..;    LDR      r3,[r1],#4
        0x001002ee:    faccf452    ..R.    UQSUB8   r4,r12,r2
        0x001002f2:    1ad5        ..      SUBS     r5,r2,r3
        0x001002f4:    d120         .      BNE      0x100338 ; strcmp + 88
        0x001002f6:    b9fc        ..      CBNZ     r4,0x100338 ; strcmp + 88
        0x001002f8:    f8502b04    P..+    LDR      r2,[r0],#4
        0x001002fc:    f8513b04    Q..;    LDR      r3,[r1],#4
        0x00100300:    faccf452    ..R.    UQSUB8   r4,r12,r2
        0x00100304:    1ad5        ..      SUBS     r5,r2,r3
        0x00100306:    d117        ..      BNE      0x100338 ; strcmp + 88
        0x00100308:    b9b4        ..      CBNZ     r4,0x100338 ; strcmp + 88
        0x0010030a:    f8502b04    P..+    LDR      r2,[r0],#4
        0x0010030e:    f8513b04    Q..;    LDR      r3,[r1],#4
        0x00100312:    faccf452    ..R.    UQSUB8   r4,r12,r2
        0x00100316:    1ad5        ..      SUBS     r5,r2,r3
        0x00100318:    d10e        ..      BNE      0x100338 ; strcmp + 88
        0x0010031a:    b96c        l.      CBNZ     r4,0x100338 ; strcmp + 88
        0x0010031c:    f8502b04    P..+    LDR      r2,[r0],#4
        0x00100320:    f8513b04    Q..;    LDR      r3,[r1],#4
        0x00100324:    faccf452    ..R.    UQSUB8   r4,r12,r2
        0x00100328:    1ad5        ..      SUBS     r5,r2,r3
        0x0010032a:    d105        ..      BNE      0x100338 ; strcmp + 88
        0x0010032c:    2c00        .,      CMP      r4,#0
        0x0010032e:    d0da        ..      BEQ      0x1002e6 ; strcmp + 6
        0x00100330:    bc30        0.      POP      {r4,r5}
        0x00100332:    f04f0000    O...    MOV      r0,#0
        0x00100336:    4770        pG      BX       lr
        0x00100338:    ba29        ).      REV      r1,r5
        0x0010033a:    fab1f181    ....    CLZ      r1,r1
        0x0010033e:    f0110118    ....    ANDS     r1,r1,#0x18
        0x00100342:    f1d10020    .. .    RSBS     r0,r1,#0x20
        0x00100346:    4084        .@      LSLS     r4,r4,r0
        0x00100348:    d1f2        ..      BNE      0x100330 ; strcmp + 80
        0x0010034a:    40ca        .@      LSRS     r2,r2,r1
        0x0010034c:    40cb        .@      LSRS     r3,r3,r1
        0x0010034e:    f01202ff    ....    ANDS     r2,r2,#0xff
        0x00100352:    f01303ff    ....    ANDS     r3,r3,#0xff
        0x00100356:    bc30        0.      POP      {r4,r5}
        0x00100358:    1ad0        ..      SUBS     r0,r2,r3
        0x0010035a:    4770        pG      BX       lr
    .text
    __use_two_region_memory
        0x0010035c:    4770        pG      BX       lr
    __rt_heap_escrow
        0x0010035e:    4770        pG      BX       lr
    __rt_heap_expand
        0x00100360:    4770        pG      BX       lr
    .text
    _printf_pre_padding
        0x00100362:    b570        p.      PUSH     {r4-r6,lr}
        0x00100364:    4604        .F      MOV      r4,r0
        0x00100366:    6985        .i      LDR      r5,[r0,#0x18]
        0x00100368:    6800        .h      LDR      r0,[r0,#0]
        0x0010036a:    06c1        ..      LSLS     r1,r0,#27
        0x0010036c:    d501        ..      BPL      0x100372 ; _printf_pre_padding + 16
        0x0010036e:    2630        0&      MOVS     r6,#0x30
        0x00100370:    e000        ..      B        0x100374 ; _printf_pre_padding + 18
        0x00100372:    2620         &      MOVS     r6,#0x20
        0x00100374:    07c0        ..      LSLS     r0,r0,#31
        0x00100376:    d007        ..      BEQ      0x100388 ; _printf_pre_padding + 38
        0x00100378:    bd70        p.      POP      {r4-r6,pc}
        0x0010037a:    e9d42101    ...!    LDRD     r2,r1,[r4,#4]
        0x0010037e:    4630        0F      MOV      r0,r6
        0x00100380:    4790        .G      BLX      r2
        0x00100382:    6a20         j      LDR      r0,[r4,#0x20]
        0x00100384:    1c40        @.      ADDS     r0,r0,#1
        0x00100386:    6220         b      STR      r0,[r4,#0x20]
        0x00100388:    1e6d        m.      SUBS     r5,r5,#1
        0x0010038a:    d5f6        ..      BPL      0x10037a ; _printf_pre_padding + 24
        0x0010038c:    bd70        p.      POP      {r4-r6,pc}
    _printf_post_padding
        0x0010038e:    b570        p.      PUSH     {r4-r6,lr}
        0x00100390:    4604        .F      MOV      r4,r0
        0x00100392:    6985        .i      LDR      r5,[r0,#0x18]
        0x00100394:    7800        .x      LDRB     r0,[r0,#0]
        0x00100396:    07c0        ..      LSLS     r0,r0,#31
        0x00100398:    d107        ..      BNE      0x1003aa ; _printf_post_padding + 28
        0x0010039a:    bd70        p.      POP      {r4-r6,pc}
        0x0010039c:    e9d42101    ...!    LDRD     r2,r1,[r4,#4]
        0x001003a0:    2020                MOVS     r0,#0x20
        0x001003a2:    4790        .G      BLX      r2
        0x001003a4:    6a20         j      LDR      r0,[r4,#0x20]
        0x001003a6:    1c40        @.      ADDS     r0,r0,#1
        0x001003a8:    6220         b      STR      r0,[r4,#0x20]
        0x001003aa:    1e6d        m.      SUBS     r5,r5,#1
        0x001003ac:    d5f6        ..      BPL      0x10039c ; _printf_post_padding + 14
        0x001003ae:    bd70        p.      POP      {r4-r6,pc}
    .text
    _printf_truncate_signed
        0x001003b0:    6809        .h      LDR      r1,[r1,#0]
        0x001003b2:    054a        J.      LSLS     r2,r1,#21
        0x001003b4:    d501        ..      BPL      0x1003ba ; _printf_truncate_signed + 10
        0x001003b6:    b240        @.      SXTB     r0,r0
        0x001003b8:    4770        pG      BX       lr
        0x001003ba:    05c9        ..      LSLS     r1,r1,#23
        0x001003bc:    d5fc        ..      BPL      0x1003b8 ; _printf_truncate_signed + 8
        0x001003be:    b200        ..      SXTH     r0,r0
        0x001003c0:    4770        pG      BX       lr
    _printf_truncate_unsigned
        0x001003c2:    6809        .h      LDR      r1,[r1,#0]
        0x001003c4:    054a        J.      LSLS     r2,r1,#21
        0x001003c6:    d501        ..      BPL      0x1003cc ; _printf_truncate_unsigned + 10
        0x001003c8:    b2c0        ..      UXTB     r0,r0
        0x001003ca:    4770        pG      BX       lr
        0x001003cc:    05c9        ..      LSLS     r1,r1,#23
        0x001003ce:    d5fc        ..      BPL      0x1003ca ; _printf_truncate_unsigned + 8
        0x001003d0:    b280        ..      UXTH     r0,r0
        0x001003d2:    4770        pG      BX       lr
    .text
    _printf_str
        0x001003d4:    b570        p.      PUSH     {r4-r6,lr}
        0x001003d6:    460c        .F      MOV      r4,r1
        0x001003d8:    4605        .F      MOV      r5,r0
        0x001003da:    2a01        .*      CMP      r2,#1
        0x001003dc:    d005        ..      BEQ      0x1003ea ; _printf_str + 22
        0x001003de:    7828        (x      LDRB     r0,[r5,#0]
        0x001003e0:    0680        ..      LSLS     r0,r0,#26
        0x001003e2:    d500        ..      BPL      0x1003e6 ; _printf_str + 18
        0x001003e4:    69ea        .i      LDR      r2,[r5,#0x1c]
        0x001003e6:    2300        .#      MOVS     r3,#0
        0x001003e8:    e002        ..      B        0x1003f0 ; _printf_str + 28
        0x001003ea:    2301        .#      MOVS     r3,#1
        0x001003ec:    e005        ..      B        0x1003fa ; _printf_str + 38
        0x001003ee:    1c5b        [.      ADDS     r3,r3,#1
        0x001003f0:    4293        .B      CMP      r3,r2
        0x001003f2:    d202        ..      BCS      0x1003fa ; _printf_str + 38
        0x001003f4:    5ce0        .\      LDRB     r0,[r4,r3]
        0x001003f6:    2800        .(      CMP      r0,#0
        0x001003f8:    d1f9        ..      BNE      0x1003ee ; _printf_str + 26
        0x001003fa:    69a8        .i      LDR      r0,[r5,#0x18]
        0x001003fc:    18e6        ..      ADDS     r6,r4,r3
        0x001003fe:    1ac0        ..      SUBS     r0,r0,r3
        0x00100400:    61a8        .a      STR      r0,[r5,#0x18]
        0x00100402:    6a28        (j      LDR      r0,[r5,#0x20]
        0x00100404:    4418        .D      ADD      r0,r0,r3
        0x00100406:    6228        (b      STR      r0,[r5,#0x20]
        0x00100408:    4628        (F      MOV      r0,r5
        0x0010040a:    f7ffffaa    ....    BL       _printf_pre_padding ; 0x100362
        0x0010040e:    e004        ..      B        0x10041a ; _printf_str + 70
        0x00100410:    e9d52101    ...!    LDRD     r2,r1,[r5,#4]
        0x00100414:    f8140b01    ....    LDRB     r0,[r4],#1
        0x00100418:    4790        .G      BLX      r2
        0x0010041a:    42b4        .B      CMP      r4,r6
        0x0010041c:    d3f8        ..      BCC      0x100410 ; _printf_str + 60
        0x0010041e:    4628        (F      MOV      r0,r5
        0x00100420:    f7ffffb5    ....    BL       _printf_post_padding ; 0x10038e
        0x00100424:    bd70        p.      POP      {r4-r6,pc}
        0x00100426:    0000        ..      MOVS     r0,r0
    .text
    _printf_int_dec
        0x00100428:    e92d41f0    -..A    PUSH     {r4-r8,lr}
        0x0010042c:    4606        .F      MOV      r6,r0
        0x0010042e:    2400        .$      MOVS     r4,#0
        0x00100430:    6810        .h      LDR      r0,[r2,#0]
        0x00100432:    2975        u)      CMP      r1,#0x75
        0x00100434:    4631        1F      MOV      r1,r6
        0x00100436:    a516        ..      ADR      r5,{pc}+0x5a ; 0x100490
        0x00100438:    d010        ..      BEQ      0x10045c ; _printf_int_dec + 52
        0x0010043a:    f7ffffb9    ....    BL       _printf_truncate_signed ; 0x1003b0
        0x0010043e:    2800        .(      CMP      r0,#0
        0x00100440:    da02        ..      BGE      0x100448 ; _printf_int_dec + 32
        0x00100442:    4240        @B      RSBS     r0,r0,#0
        0x00100444:    a513        ..      ADR      r5,{pc}+0x50 ; 0x100494
        0x00100446:    e007        ..      B        0x100458 ; _printf_int_dec + 48
        0x00100448:    6831        1h      LDR      r1,[r6,#0]
        0x0010044a:    078a        ..      LSLS     r2,r1,#30
        0x0010044c:    d501        ..      BPL      0x100452 ; _printf_int_dec + 42
        0x0010044e:    a512        ..      ADR      r5,{pc}+0x4a ; 0x100498
        0x00100450:    e002        ..      B        0x100458 ; _printf_int_dec + 48
        0x00100452:    0749        I.      LSLS     r1,r1,#29
        0x00100454:    d504        ..      BPL      0x100460 ; _printf_int_dec + 56
        0x00100456:    a511        ..      ADR      r5,{pc}+0x46 ; 0x10049c
        0x00100458:    2401        .$      MOVS     r4,#1
        0x0010045a:    e001        ..      B        0x100460 ; _printf_int_dec + 56
        0x0010045c:    f7ffffb1    ....    BL       _printf_truncate_unsigned ; 0x1003c2
        0x00100460:    2100        .!      MOVS     r1,#0
        0x00100462:    220a        ."      MOVS     r2,#0xa
        0x00100464:    f1060724    ..$.    ADD      r7,r6,#0x24
        0x00100468:    e009        ..      B        0x10047e ; _printf_int_dec + 86
        0x0010046a:    fbb0fcf2    ....    UDIV     r12,r0,r2
        0x0010046e:    fbb0f3f2    ....    UDIV     r3,r0,r2
        0x00100472:    fb02001c    ....    MLS      r0,r2,r12,r0
        0x00100476:    3030        00      ADDS     r0,r0,#0x30
        0x00100478:    5478        xT      STRB     r0,[r7,r1]
        0x0010047a:    4618        .F      MOV      r0,r3
        0x0010047c:    1c49        I.      ADDS     r1,r1,#1
        0x0010047e:    2800        .(      CMP      r0,#0
        0x00100480:    d1f3        ..      BNE      0x10046a ; _printf_int_dec + 66
        0x00100482:    4623        #F      MOV      r3,r4
        0x00100484:    462a        *F      MOV      r2,r5
        0x00100486:    4630        0F      MOV      r0,r6
        0x00100488:    e8bd41f0    ...A    POP      {r4-r8,lr}
        0x0010048c:    f000ba69    ..i.    B.W      _printf_int_common ; 0x100962
    $d
        0x00100490:    00000000    ....    DCD    0
        0x00100494:    0000002d    -...    DCD    45
        0x00100498:    0000002b    +...    DCD    43
        0x0010049c:    00000020     ...    DCD    32
    $t
    .text
    _printf_charcount
        0x001004a0:    6811        .h      LDR      r1,[r2,#0]
        0x001004a2:    6802        .h      LDR      r2,[r0,#0]
        0x001004a4:    6a00        .j      LDR      r0,[r0,#0x20]
        0x001004a6:    0553        S.      LSLS     r3,r2,#21
        0x001004a8:    d501        ..      BPL      0x1004ae ; _printf_charcount + 14
        0x001004aa:    7008        .p      STRB     r0,[r1,#0]
        0x001004ac:    e00a        ..      B        0x1004c4 ; _printf_charcount + 36
        0x001004ae:    05d3        ..      LSLS     r3,r2,#23
        0x001004b0:    d501        ..      BPL      0x1004b6 ; _printf_charcount + 22
        0x001004b2:    8008        ..      STRH     r0,[r1,#0]
        0x001004b4:    e006        ..      B        0x1004c4 ; _printf_charcount + 36
        0x001004b6:    0613        ..      LSLS     r3,r2,#24
        0x001004b8:    d503        ..      BPL      0x1004c2 ; _printf_charcount + 34
        0x001004ba:    17c2        ..      ASRS     r2,r0,#31
        0x001004bc:    e9c10200    ....    STRD     r0,r2,[r1,#0]
        0x001004c0:    e000        ..      B        0x1004c4 ; _printf_charcount + 36
        0x001004c2:    6008        .`      STR      r0,[r1,#0]
        0x001004c4:    2001        .       MOVS     r0,#1
        0x001004c6:    4770        pG      BX       lr
    .text
    _printf_input_char
        0x001004c8:    6901        .i      LDR      r1,[r0,#0x10]
        0x001004ca:    1c4a        J.      ADDS     r2,r1,#1
        0x001004cc:    6102        .a      STR      r2,[r0,#0x10]
        0x001004ce:    7808        .x      LDRB     r0,[r1,#0]
        0x001004d0:    4770        pG      BX       lr
    _printf_char_common
        0x001004d2:    b500        ..      PUSH     {lr}
        0x001004d4:    b08f        ..      SUB      sp,sp,#0x3c
        0x001004d6:    e9cd3101    ...1    STRD     r3,r1,[sp,#4]
        0x001004da:    2100        .!      MOVS     r1,#0
        0x001004dc:    9105        ..      STR      r1,[sp,#0x14]
        0x001004de:    4905        .I      LDR      r1,[pc,#20] ; [0x1004f4] = 0xffffffe5
        0x001004e0:    4479        yD      ADD      r1,r1,pc
        0x001004e2:    e9cd1003    ....    STRD     r1,r0,[sp,#0xc]
        0x001004e6:    4611        .F      MOV      r1,r2
        0x001004e8:    4668        hF      MOV      r0,sp
        0x001004ea:    f000f931    ..1.    BL       __printf ; 0x100750
        0x001004ee:    b00f        ..      ADD      sp,sp,#0x3c
        0x001004f0:    bd00        ..      POP      {pc}
    $d
        0x001004f2:    0000        ..      DCW    0
        0x001004f4:    ffffffe5    ....    DCD    4294967269
    $t
    .text
    _sputc
        0x001004f8:    680a        .h      LDR      r2,[r1,#0]
        0x001004fa:    f8020b01    ....    STRB     r0,[r2],#1
        0x001004fe:    600a        .`      STR      r2,[r1,#0]
        0x00100500:    4770        pG      BX       lr
    .text
    _snputc
        0x00100502:    e9d12300    ...#    LDRD     r2,r3,[r1,#0]
        0x00100506:    429a        .B      CMP      r2,r3
        0x00100508:    d202        ..      BCS      0x100510 ; _snputc + 14
        0x0010050a:    1c53        S.      ADDS     r3,r2,#1
        0x0010050c:    600b        .`      STR      r3,[r1,#0]
        0x0010050e:    7010        .p      STRB     r0,[r2,#0]
        0x00100510:    4770        pG      BX       lr
        0x00100512:    0000        ..      MOVS     r0,r0
    .text
    _printf_wctomb
        0x00100514:    e92d5fff    -.._    PUSH     {r0-r12,lr}
        0x00100518:    4615        .F      MOV      r5,r2
        0x0010051a:    468a        .F      MOV      r10,r1
        0x0010051c:    4604        .F      MOV      r4,r0
        0x0010051e:    f8df80ac    ....    LDR      r8,[pc,#172] ; [0x1005cc] = 0x426a
        0x00100522:    44f8        .D      ADD      r8,r8,pc
        0x00100524:    2700        .'      MOVS     r7,#0
        0x00100526:    e9d81000    ....    LDRD     r1,r0,[r8,#0]
        0x0010052a:    463e        >F      MOV      r6,r7
        0x0010052c:    e9cd1000    ....    STRD     r1,r0,[sp,#0]
        0x00100530:    e010        ..      B        0x100554 ; _printf_wctomb + 64
        0x00100532:    f85a1026    Z.&.    LDR      r1,[r10,r6,LSL #2]
        0x00100536:    466a        jF      MOV      r2,sp
        0x00100538:    a802        ..      ADD      r0,sp,#8
        0x0010053a:    f000fe23    ..#.    BL       _c32rtomb ; 0x101184
        0x0010053e:    1c41        A.      ADDS     r1,r0,#1
        0x00100540:    d007        ..      BEQ      0x100552 ; _printf_wctomb + 62
        0x00100542:    7821        !x      LDRB     r1,[r4,#0]
        0x00100544:    0689        ..      LSLS     r1,r1,#26
        0x00100546:    d503        ..      BPL      0x100550 ; _printf_wctomb + 60
        0x00100548:    69e2        .i      LDR      r2,[r4,#0x1c]
        0x0010054a:    1839        9.      ADDS     r1,r7,r0
        0x0010054c:    4291        .B      CMP      r1,r2
        0x0010054e:    d80d        ..      BHI      0x10056c ; _printf_wctomb + 88
        0x00100550:    4407        .D      ADD      r7,r7,r0
        0x00100552:    1c76        v.      ADDS     r6,r6,#1
        0x00100554:    7820         x      LDRB     r0,[r4,#0]
        0x00100556:    0680        ..      LSLS     r0,r0,#26
        0x00100558:    d502        ..      BPL      0x100560 ; _printf_wctomb + 76
        0x0010055a:    69e0        .i      LDR      r0,[r4,#0x1c]
        0x0010055c:    42b8        .B      CMP      r0,r7
        0x0010055e:    dd05        ..      BLE      0x10056c ; _printf_wctomb + 88
        0x00100560:    42ae        .B      CMP      r6,r5
        0x00100562:    dbe6        ..      BLT      0x100532 ; _printf_wctomb + 30
        0x00100564:    f85a0026    Z.&.    LDR      r0,[r10,r6,LSL #2]
        0x00100568:    2800        .(      CMP      r0,#0
        0x0010056a:    d1e2        ..      BNE      0x100532 ; _printf_wctomb + 30
        0x0010056c:    69a0        .i      LDR      r0,[r4,#0x18]
        0x0010056e:    1bc0        ..      SUBS     r0,r0,r7
        0x00100570:    61a0        .a      STR      r0,[r4,#0x18]
        0x00100572:    4620         F      MOV      r0,r4
        0x00100574:    f7fffef5    ....    BL       _printf_pre_padding ; 0x100362
        0x00100578:    e9d81000    ....    LDRD     r1,r0,[r8,#0]
        0x0010057c:    e9cd1000    ....    STRD     r1,r0,[sp,#0]
        0x00100580:    2000        .       MOVS     r0,#0
        0x00100582:    e017        ..      B        0x1005b4 ; _printf_wctomb + 160
        0x00100584:    f85a1028    Z.(.    LDR      r1,[r10,r8,LSL #2]
        0x00100588:    466a        jF      MOV      r2,sp
        0x0010058a:    a802        ..      ADD      r0,sp,#8
        0x0010058c:    f000fdfa    ....    BL       _c32rtomb ; 0x101184
        0x00100590:    f1b03fff    ...?    CMP      r0,#0xffffffff
        0x00100594:    4681        .F      MOV      r9,r0
        0x00100596:    d00b        ..      BEQ      0x1005b0 ; _printf_wctomb + 156
        0x00100598:    2500        .%      MOVS     r5,#0
        0x0010059a:    f10d0b08    ....    ADD      r11,sp,#8
        0x0010059e:    e005        ..      B        0x1005ac ; _printf_wctomb + 152
        0x001005a0:    e9d42101    ...!    LDRD     r2,r1,[r4,#4]
        0x001005a4:    f81b0005    ....    LDRB     r0,[r11,r5]
        0x001005a8:    4790        .G      BLX      r2
        0x001005aa:    1c6d        m.      ADDS     r5,r5,#1
        0x001005ac:    454d        ME      CMP      r5,r9
        0x001005ae:    d3f7        ..      BCC      0x1005a0 ; _printf_wctomb + 140
        0x001005b0:    f1080001    ....    ADD      r0,r8,#1
        0x001005b4:    42b0        .B      CMP      r0,r6
        0x001005b6:    4680        .F      MOV      r8,r0
        0x001005b8:    dbe4        ..      BLT      0x100584 ; _printf_wctomb + 112
        0x001005ba:    6a20         j      LDR      r0,[r4,#0x20]
        0x001005bc:    4438        8D      ADD      r0,r0,r7
        0x001005be:    6220         b      STR      r0,[r4,#0x20]
        0x001005c0:    4620         F      MOV      r0,r4
        0x001005c2:    f7fffee4    ....    BL       _printf_post_padding ; 0x10038e
        0x001005c6:    e8bd9fff    ....    POP      {r0-r12,pc}
    $d
        0x001005ca:    0000        ..      DCW    0
        0x001005cc:    0000426a    jB..    DCD    17002
    $t
    .text
    _printf_longlong_dec
        0x001005d0:    e92d41f0    -..A    PUSH     {r4-r8,lr}
        0x001005d4:    4680        .F      MOV      r8,r0
        0x001005d6:    1dd2        ..      ADDS     r2,r2,#7
        0x001005d8:    f0220207    "...    BIC      r2,r2,#7
        0x001005dc:    2500        .%      MOVS     r5,#0
        0x001005de:    e9d20200    ....    LDRD     r0,r2,[r2,#0]
        0x001005e2:    29f5        .)      CMP      r1,#0xf5
        0x001005e4:    a615        ..      ADR      r6,{pc}+0x58 ; 0x10063c
        0x001005e6:    d014        ..      BEQ      0x100612 ; _printf_longlong_dec + 66
        0x001005e8:    1e01        ..      SUBS     r1,r0,#0
        0x001005ea:    f1720100    r...    SBCS     r1,r2,#0
        0x001005ee:    da06        ..      BGE      0x1005fe ; _printf_longlong_dec + 46
        0x001005f0:    2300        .#      MOVS     r3,#0
        0x001005f2:    ebd00003    ....    RSBS     r0,r0,r3
        0x001005f6:    eb630202    c...    SBC      r2,r3,r2
        0x001005fa:    a611        ..      ADR      r6,{pc}+0x46 ; 0x100640
        0x001005fc:    e008        ..      B        0x100610 ; _printf_longlong_dec + 64
        0x001005fe:    f8d81000    ....    LDR      r1,[r8,#0]
        0x00100602:    078b        ..      LSLS     r3,r1,#30
        0x00100604:    d501        ..      BPL      0x10060a ; _printf_longlong_dec + 58
        0x00100606:    a60f        ..      ADR      r6,{pc}+0x3e ; 0x100644
        0x00100608:    e002        ..      B        0x100610 ; _printf_longlong_dec + 64
        0x0010060a:    0749        I.      LSLS     r1,r1,#29
        0x0010060c:    d501        ..      BPL      0x100612 ; _printf_longlong_dec + 66
        0x0010060e:    a60e        ..      ADR      r6,{pc}+0x3a ; 0x100648
        0x00100610:    2501        .%      MOVS     r5,#1
        0x00100612:    4611        .F      MOV      r1,r2
        0x00100614:    2400        .$      MOVS     r4,#0
        0x00100616:    f1080724    ..$.    ADD      r7,r8,#0x24
        0x0010061a:    e004        ..      B        0x100626 ; _printf_longlong_dec + 86
        0x0010061c:    f000f95c    ..\.    BL       _ll_udiv10 ; 0x1008d8
        0x00100620:    3230        02      ADDS     r2,r2,#0x30
        0x00100622:    553a        :U      STRB     r2,[r7,r4]
        0x00100624:    1c64        d.      ADDS     r4,r4,#1
        0x00100626:    ea500201    P...    ORRS     r2,r0,r1
        0x0010062a:    d1f7        ..      BNE      0x10061c ; _printf_longlong_dec + 76
        0x0010062c:    462b        +F      MOV      r3,r5
        0x0010062e:    4632        2F      MOV      r2,r6
        0x00100630:    4621        !F      MOV      r1,r4
        0x00100632:    4640        @F      MOV      r0,r8
        0x00100634:    e8bd41f0    ...A    POP      {r4-r8,lr}
        0x00100638:    f000b993    ....    B.W      _printf_int_common ; 0x100962
    $d
        0x0010063c:    00000000    ....    DCD    0
        0x00100640:    0000002d    -...    DCD    45
        0x00100644:    0000002b    +...    DCD    43
        0x00100648:    00000020     ...    DCD    32
    $t
    .text
    _printf_longlong_oct_internal
    _printf_longlong_oct
        0x0010064c:    b430        0.      PUSH     {r4,r5}
        0x0010064e:    2100        .!      MOVS     r1,#0
        0x00100650:    f1000424    ..$.    ADD      r4,r0,#0x24
        0x00100654:    e008        ..      B        0x100668 ; _printf_longlong_oct_internal + 28
        0x00100656:    f0020507    ....    AND      r5,r2,#7
        0x0010065a:    08d2        ..      LSRS     r2,r2,#3
        0x0010065c:    3530        05      ADDS     r5,r5,#0x30
        0x0010065e:    ea427243    B.Cr    ORR      r2,r2,r3,LSL #29
        0x00100662:    08db        ..      LSRS     r3,r3,#3
        0x00100664:    5465        eT      STRB     r5,[r4,r1]
        0x00100666:    1c49        I.      ADDS     r1,r1,#1
        0x00100668:    ea520503    R...    ORRS     r5,r2,r3
        0x0010066c:    d1f3        ..      BNE      0x100656 ; _printf_longlong_oct_internal + 10
        0x0010066e:    6804        .h      LDR      r4,[r0,#0]
        0x00100670:    2300        .#      MOVS     r3,#0
        0x00100672:    a210        ..      ADR      r2,{pc}+0x42 ; 0x1006b4
        0x00100674:    0725        %.      LSLS     r5,r4,#28
        0x00100676:    d508        ..      BPL      0x10068a ; _printf_longlong_oct_internal + 62
        0x00100678:    f0040420    .. .    AND      r4,r4,#0x20
        0x0010067c:    430c        .C      ORRS     r4,r4,r1
        0x0010067e:    d004        ..      BEQ      0x10068a ; _printf_longlong_oct_internal + 62
        0x00100680:    69c4        .i      LDR      r4,[r0,#0x1c]
        0x00100682:    2301        .#      MOVS     r3,#1
        0x00100684:    a20c        ..      ADR      r2,{pc}+0x34 ; 0x1006b8
        0x00100686:    1e64        d.      SUBS     r4,r4,#1
        0x00100688:    61c4        .a      STR      r4,[r0,#0x1c]
        0x0010068a:    bc30        0.      POP      {r4,r5}
        0x0010068c:    f000b969    ..i.    B.W      _printf_int_common ; 0x100962
    _printf_int_oct
        0x00100690:    b510        ..      PUSH     {r4,lr}
        0x00100692:    4604        .F      MOV      r4,r0
        0x00100694:    4621        !F      MOV      r1,r4
        0x00100696:    6810        .h      LDR      r0,[r2,#0]
        0x00100698:    f7fffe93    ....    BL       _printf_truncate_unsigned ; 0x1003c2
        0x0010069c:    4602        .F      MOV      r2,r0
        0x0010069e:    4620         F      MOV      r0,r4
        0x001006a0:    e8bd4010    ...@    POP      {r4,lr}
        0x001006a4:    2300        .#      MOVS     r3,#0
        0x001006a6:    e7d1        ..      B        _printf_longlong_oct_internal ; 0x10064c
    _printf_ll_oct
        0x001006a8:    1dd2        ..      ADDS     r2,r2,#7
        0x001006aa:    f0220107    "...    BIC      r1,r2,#7
        0x001006ae:    e9d12300    ...#    LDRD     r2,r3,[r1,#0]
        0x001006b2:    e7cb        ..      B        _printf_longlong_oct_internal ; 0x10064c
    $d
        0x001006b4:    00000000    ....    DCD    0
        0x001006b8:    00000030    0...    DCD    48
    $t
    .text
    _printf_hex_common
    _printf_longlong_hex
        0x001006bc:    b4f0        ..      PUSH     {r4-r7}
        0x001006be:    460d        .F      MOV      r5,r1
        0x001006c0:    8801        ..      LDRH     r1,[r0,#0]
        0x001006c2:    0509        ..      LSLS     r1,r1,#20
        0x001006c4:    d502        ..      BPL      0x1006cc ; _printf_hex_common + 16
        0x001006c6:    4c21        !L      LDR      r4,[pc,#132] ; [0x10074c] = 0x40cc
        0x001006c8:    447c        |D      ADD      r4,r4,pc
        0x001006ca:    e002        ..      B        0x1006d2 ; _printf_hex_common + 22
        0x001006cc:    4c1f        .L      LDR      r4,[pc,#124] ; [0x10074c] = 0x40cc
        0x001006ce:    447c        |D      ADD      r4,r4,pc
        0x001006d0:    340e        .4      ADDS     r4,r4,#0xe
        0x001006d2:    2100        .!      MOVS     r1,#0
        0x001006d4:    f1000624    ..$.    ADD      r6,r0,#0x24
        0x001006d8:    e008        ..      B        0x1006ec ; _printf_hex_common + 48
        0x001006da:    f002070f    ....    AND      r7,r2,#0xf
        0x001006de:    0912        ..      LSRS     r2,r2,#4
        0x001006e0:    5de7        .]      LDRB     r7,[r4,r7]
        0x001006e2:    ea427203    B..r    ORR      r2,r2,r3,LSL #28
        0x001006e6:    091b        ..      LSRS     r3,r3,#4
        0x001006e8:    5477        wT      STRB     r7,[r6,r1]
        0x001006ea:    1c49        I.      ADDS     r1,r1,#1
        0x001006ec:    ea520703    R...    ORRS     r7,r2,r3
        0x001006f0:    d1f3        ..      BNE      0x1006da ; _printf_hex_common + 30
        0x001006f2:    7802        .x      LDRB     r2,[r0,#0]
        0x001006f4:    2300        .#      MOVS     r3,#0
        0x001006f6:    0712        ..      LSLS     r2,r2,#28
        0x001006f8:    d504        ..      BPL      0x100704 ; _printf_hex_common + 72
        0x001006fa:    2d70        p-      CMP      r5,#0x70
        0x001006fc:    d006        ..      BEQ      0x10070c ; _printf_hex_common + 80
        0x001006fe:    b109        ..      CBZ      r1,0x100704 ; _printf_hex_common + 72
        0x00100700:    2302        .#      MOVS     r3,#2
        0x00100702:    3411        .4      ADDS     r4,r4,#0x11
        0x00100704:    4622        "F      MOV      r2,r4
        0x00100706:    bcf0        ..      POP      {r4-r7}
        0x00100708:    f000b92b    ..+.    B.W      _printf_int_common ; 0x100962
        0x0010070c:    2301        .#      MOVS     r3,#1
        0x0010070e:    3410        .4      ADDS     r4,r4,#0x10
        0x00100710:    e7f8        ..      B        0x100704 ; _printf_hex_common + 72
    _printf_int_hex
        0x00100712:    b570        p.      PUSH     {r4-r6,lr}
        0x00100714:    4604        .F      MOV      r4,r0
        0x00100716:    460d        .F      MOV      r5,r1
        0x00100718:    4621        !F      MOV      r1,r4
        0x0010071a:    6810        .h      LDR      r0,[r2,#0]
        0x0010071c:    f7fffe51    ..Q.    BL       _printf_truncate_unsigned ; 0x1003c2
        0x00100720:    4602        .F      MOV      r2,r0
        0x00100722:    4629        )F      MOV      r1,r5
        0x00100724:    4620         F      MOV      r0,r4
        0x00100726:    e8bd4070    ..p@    POP      {r4-r6,lr}
        0x0010072a:    2300        .#      MOVS     r3,#0
        0x0010072c:    e7c6        ..      B        _printf_hex_common ; 0x1006bc
    _printf_ll_hex
        0x0010072e:    1dd2        ..      ADDS     r2,r2,#7
        0x00100730:    f0220307    "...    BIC      r3,r2,#7
        0x00100734:    e9d32300    ...#    LDRD     r2,r3,[r3,#0]
        0x00100738:    e7c0        ..      B        _printf_hex_common ; 0x1006bc
    _printf_hex_ptr
        0x0010073a:    6803        .h      LDR      r3,[r0,#0]
        0x0010073c:    6812        .h      LDR      r2,[r2,#0]
        0x0010073e:    f0430320    C. .    ORR      r3,r3,#0x20
        0x00100742:    6003        .`      STR      r3,[r0,#0]
        0x00100744:    2308        .#      MOVS     r3,#8
        0x00100746:    61c3        .a      STR      r3,[r0,#0x1c]
        0x00100748:    2300        .#      MOVS     r3,#0
        0x0010074a:    e7b7        ..      B        _printf_hex_common ; 0x1006bc
    $d
        0x0010074c:    000040cc    .@..    DCD    16588
    $t
    .text
    __printf
        0x00100750:    e92d5ff0    -.._    PUSH     {r4-r12,lr}
        0x00100754:    4689        .F      MOV      r9,r1
        0x00100756:    4604        .F      MOV      r4,r0
        0x00100758:    f04f0a00    O...    MOV      r10,#0
        0x0010075c:    f8dfb174    ..t.    LDR      r11,[pc,#372] ; [0x1008d4] = 0x405c
        0x00100760:    44fb        .D      ADD      r11,r11,pc
        0x00100762:    f8c0a020    .. .    STR      r10,[r0,#0x20]
        0x00100766:    4620         F      MOV      r0,r4
        0x00100768:    68e1        .h      LDR      r1,[r4,#0xc]
        0x0010076a:    4788        .G      BLX      r1
        0x0010076c:    2800        .(      CMP      r0,#0
        0x0010076e:    d074        t.      BEQ      0x10085a ; __printf + 266
        0x00100770:    2825        %(      CMP      r0,#0x25
        0x00100772:    d006        ..      BEQ      0x100782 ; __printf + 50
        0x00100774:    e9d42101    ...!    LDRD     r2,r1,[r4,#4]
        0x00100778:    4790        .G      BLX      r2
        0x0010077a:    6a20         j      LDR      r0,[r4,#0x20]
        0x0010077c:    1c40        @.      ADDS     r0,r0,#1
        0x0010077e:    6220         b      STR      r0,[r4,#0x20]
        0x00100780:    e7f1        ..      B        0x100766 ; __printf + 22
        0x00100782:    2600        .&      MOVS     r6,#0
        0x00100784:    465f        _F      MOV      r7,r11
        0x00100786:    4620         F      MOV      r0,r4
        0x00100788:    68e1        .h      LDR      r1,[r4,#0xc]
        0x0010078a:    4788        .G      BLX      r1
        0x0010078c:    2820         (      CMP      r0,#0x20
        0x0010078e:    4605        .F      MOV      r5,r0
        0x00100790:    db07        ..      BLT      0x1007a2 ; __printf + 82
        0x00100792:    2d31        1-      CMP      r5,#0x31
        0x00100794:    d205        ..      BCS      0x1007a2 ; __printf + 82
        0x00100796:    1978        x.      ADDS     r0,r7,r5
        0x00100798:    f8100c20    .. .    LDRB     r0,[r0,#-0x20]
        0x0010079c:    b108        ..      CBZ      r0,0x1007a2 ; __printf + 82
        0x0010079e:    4306        .C      ORRS     r6,r6,r0
        0x001007a0:    e7f1        ..      B        0x100786 ; __printf + 54
        0x001007a2:    07b0        ..      LSLS     r0,r6,#30
        0x001007a4:    d501        ..      BPL      0x1007aa ; __printf + 90
        0x001007a6:    f0260604    &...    BIC      r6,r6,#4
        0x001007aa:    f8c4a01c    ....    STR      r10,[r4,#0x1c]
        0x001007ae:    2700        .'      MOVS     r7,#0
        0x001007b0:    f8c4a018    ....    STR      r10,[r4,#0x18]
        0x001007b4:    2d2a        *-      CMP      r5,#0x2a
        0x001007b6:    d009        ..      BEQ      0x1007cc ; __printf + 124
        0x001007b8:    4628        (F      MOV      r0,r5
        0x001007ba:    f003ffa3    ....    BL       _is_digit ; 0x104704
        0x001007be:    b338        8.      CBZ      r0,0x100810 ; __printf + 192
        0x001007c0:    eb040887    ....    ADD      r8,r4,r7,LSL #2
        0x001007c4:    3d30        0=      SUBS     r5,r5,#0x30
        0x001007c6:    f8c85018    ...P    STR      r5,[r8,#0x18]
        0x001007ca:    e019        ..      B        0x100800 ; __printf + 176
        0x001007cc:    f8591b04    Y...    LDR      r1,[r9],#4
        0x001007d0:    4620         F      MOV      r0,r4
        0x001007d2:    eb040287    ....    ADD      r2,r4,r7,LSL #2
        0x001007d6:    6191        .a      STR      r1,[r2,#0x18]
        0x001007d8:    68e1        .h      LDR      r1,[r4,#0xc]
        0x001007da:    4788        .G      BLX      r1
        0x001007dc:    2f01        ./      CMP      r7,#1
        0x001007de:    4605        .F      MOV      r5,r0
        0x001007e0:    d118        ..      BNE      0x100814 ; __printf + 196
        0x001007e2:    69e0        .i      LDR      r0,[r4,#0x1c]
        0x001007e4:    2800        .(      CMP      r0,#0
        0x001007e6:    da20         .      BGE      0x10082a ; __printf + 218
        0x001007e8:    f0260620    &. .    BIC      r6,r6,#0x20
        0x001007ec:    e01d        ..      B        0x10082a ; __printf + 218
        0x001007ee:    f8d80018    ....    LDR      r0,[r8,#0x18]
        0x001007f2:    eb000080    ....    ADD      r0,r0,r0,LSL #2
        0x001007f6:    eb050040    ..@.    ADD      r0,r5,r0,LSL #1
        0x001007fa:    3830        08      SUBS     r0,r0,#0x30
        0x001007fc:    f8c80018    ....    STR      r0,[r8,#0x18]
        0x00100800:    4620         F      MOV      r0,r4
        0x00100802:    68e1        .h      LDR      r1,[r4,#0xc]
        0x00100804:    4788        .G      BLX      r1
        0x00100806:    4605        .F      MOV      r5,r0
        0x00100808:    f003ff7c    ..|.    BL       _is_digit ; 0x104704
        0x0010080c:    2800        .(      CMP      r0,#0
        0x0010080e:    d1ee        ..      BNE      0x1007ee ; __printf + 158
        0x00100810:    2f01        ./      CMP      r7,#1
        0x00100812:    d00a        ..      BEQ      0x10082a ; __printf + 218
        0x00100814:    2d2e        .-      CMP      r5,#0x2e
        0x00100816:    d108        ..      BNE      0x10082a ; __printf + 218
        0x00100818:    4620         F      MOV      r0,r4
        0x0010081a:    68e1        .h      LDR      r1,[r4,#0xc]
        0x0010081c:    4788        .G      BLX      r1
        0x0010081e:    1c7f        ..      ADDS     r7,r7,#1
        0x00100820:    4605        .F      MOV      r5,r0
        0x00100822:    2f02        ./      CMP      r7,#2
        0x00100824:    f0460620    F. .    ORR      r6,r6,#0x20
        0x00100828:    dbc4        ..      BLT      0x1007b4 ; __printf + 100
        0x0010082a:    69a0        .i      LDR      r0,[r4,#0x18]
        0x0010082c:    2800        .(      CMP      r0,#0
        0x0010082e:    da03        ..      BGE      0x100838 ; __printf + 232
        0x00100830:    4240        @B      RSBS     r0,r0,#0
        0x00100832:    f0460601    F...    ORR      r6,r6,#1
        0x00100836:    61a0        .a      STR      r0,[r4,#0x18]
        0x00100838:    07f0        ..      LSLS     r0,r6,#31
        0x0010083a:    d001        ..      BEQ      0x100840 ; __printf + 240
        0x0010083c:    f0260610    &...    BIC      r6,r6,#0x10
        0x00100840:    2d6c        l-      CMP      r5,#0x6c
        0x00100842:    d00b        ..      BEQ      0x10085c ; __printf + 268
        0x00100844:    2d68        h-      CMP      r5,#0x68
        0x00100846:    d009        ..      BEQ      0x10085c ; __printf + 268
        0x00100848:    2d4c        L-      CMP      r5,#0x4c
        0x0010084a:    d039        9.      BEQ      0x1008c0 ; __printf + 368
        0x0010084c:    2d6a        j-      CMP      r5,#0x6a
        0x0010084e:    d035        5.      BEQ      0x1008bc ; __printf + 364
        0x00100850:    2d74        t-      CMP      r5,#0x74
        0x00100852:    d035        5.      BEQ      0x1008c0 ; __printf + 368
        0x00100854:    2d7a        z-      CMP      r5,#0x7a
        0x00100856:    d033        3.      BEQ      0x1008c0 ; __printf + 368
        0x00100858:    e016        ..      B        0x100888 ; __printf + 312
        0x0010085a:    e038        8.      B        0x1008ce ; __printf + 382
        0x0010085c:    68e1        .h      LDR      r1,[r4,#0xc]
        0x0010085e:    462f        /F      MOV      r7,r5
        0x00100860:    4620         F      MOV      r0,r4
        0x00100862:    4788        .G      BLX      r1
        0x00100864:    42b8        .B      CMP      r0,r7
        0x00100866:    4605        .F      MOV      r5,r0
        0x00100868:    d109        ..      BNE      0x10087e ; __printf + 302
        0x0010086a:    2f6c        l/      CMP      r7,#0x6c
        0x0010086c:    d026        &.      BEQ      0x1008bc ; __printf + 364
        0x0010086e:    f44f6080    O..`    MOV      r0,#0x400
        0x00100872:    68e1        .h      LDR      r1,[r4,#0xc]
        0x00100874:    4306        .C      ORRS     r6,r6,r0
        0x00100876:    4620         F      MOV      r0,r4
        0x00100878:    4788        .G      BLX      r1
        0x0010087a:    4605        .F      MOV      r5,r0
        0x0010087c:    e004        ..      B        0x100888 ; __printf + 312
        0x0010087e:    2f6c        l/      CMP      r7,#0x6c
        0x00100880:    d01a        ..      BEQ      0x1008b8 ; __printf + 360
        0x00100882:    f44f7080    O..p    MOV      r0,#0x100
        0x00100886:    4306        .C      ORRS     r6,r6,r0
        0x00100888:    b30d        ..      CBZ      r5,0x1008ce ; __printf + 382
        0x0010088a:    f1a50041    ..A.    SUB      r0,r5,#0x41
        0x0010088e:    2819        .(      CMP      r0,#0x19
        0x00100890:    d802        ..      BHI      0x100898 ; __printf + 328
        0x00100892:    3520         5      ADDS     r5,r5,#0x20
        0x00100894:    f4466600    F..f    ORR      r6,r6,#0x800
        0x00100898:    464a        JF      MOV      r2,r9
        0x0010089a:    4629        )F      MOV      r1,r5
        0x0010089c:    4620         F      MOV      r0,r4
        0x0010089e:    6026        &`      STR      r6,[r4,#0]
        0x001008a0:    464e        NF      MOV      r6,r9
        0x001008a2:    f7fffc47    ..G.    BL       _printf_n ; 0x100134
        0x001008a6:    b180        ..      CBZ      r0,0x1008ca ; __printf + 378
        0x001008a8:    2801        .(      CMP      r0,#1
        0x001008aa:    d00b        ..      BEQ      0x1008c4 ; __printf + 372
        0x001008ac:    1df6        ..      ADDS     r6,r6,#7
        0x001008ae:    f0260007    &...    BIC      r0,r6,#7
        0x001008b2:    f1000908    ....    ADD      r9,r0,#8
        0x001008b6:    e756        V.      B        0x100766 ; __printf + 22
        0x001008b8:    2040        @       MOVS     r0,#0x40
        0x001008ba:    e7e4        ..      B        0x100886 ; __printf + 310
        0x001008bc:    2080        .       MOVS     r0,#0x80
        0x001008be:    e7d8        ..      B        0x100872 ; __printf + 290
        0x001008c0:    2000        .       MOVS     r0,#0
        0x001008c2:    e7d6        ..      B        0x100872 ; __printf + 290
        0x001008c4:    f1060904    ....    ADD      r9,r6,#4
        0x001008c8:    e74d        M.      B        0x100766 ; __printf + 22
        0x001008ca:    4628        (F      MOV      r0,r5
        0x001008cc:    e752        R.      B        0x100774 ; __printf + 36
        0x001008ce:    6a20         j      LDR      r0,[r4,#0x20]
        0x001008d0:    e8bd9ff0    ....    POP      {r4-r12,pc}
    $d
        0x001008d4:    0000405c    \@..    DCD    16476
    $t
    .text
    _ll_udiv10
        0x001008d8:    b530        0.      PUSH     {r4,r5,lr}
        0x001008da:    f1b0020a    ....    SUBS     r2,r0,#0xa
        0x001008de:    f1710300    q...    SBCS     r3,r1,#0
        0x001008e2:    ea4f0e90    O...    LSR      lr,r0,#2
        0x001008e6:    ea4e7e81    N..~    ORR      lr,lr,r1,LSL #30
        0x001008ea:    ebb0000e    ....    SUBS     r0,r0,lr
        0x001008ee:    eb610191    a...    SBC      r1,r1,r1,LSR #2
        0x001008f2:    ea4f1e10    O...    LSR      lr,r0,#4
        0x001008f6:    ea4e7e01    N..~    ORR      lr,lr,r1,LSL #28
        0x001008fa:    eb10000e    ....    ADDS     r0,r0,lr
        0x001008fe:    eb411111    A...    ADC      r1,r1,r1,LSR #4
        0x00100902:    ea4f2e10    O...    LSR      lr,r0,#8
        0x00100906:    ea4e6e01    N..n    ORR      lr,lr,r1,LSL #24
        0x0010090a:    eb10000e    ....    ADDS     r0,r0,lr
        0x0010090e:    eb412111    A..!    ADC      r1,r1,r1,LSR #8
        0x00100912:    ea4f4e10    O..N    LSR      lr,r0,#16
        0x00100916:    ea4e4e01    N..N    ORR      lr,lr,r1,LSL #16
        0x0010091a:    eb10000e    ....    ADDS     r0,r0,lr
        0x0010091e:    eb414111    A..A    ADC      r1,r1,r1,LSR #16
        0x00100922:    1840        @.      ADDS     r0,r0,r1
        0x00100924:    f1410100    A...    ADC      r1,r1,#0
        0x00100928:    ea4f00d0    O...    LSR      r0,r0,#3
        0x0010092c:    ea407041    @.Ap    ORR      r0,r0,r1,LSL #29
        0x00100930:    ea4f01d1    O...    LSR      r1,r1,#3
        0x00100934:    ea4f0481    O...    LSL      r4,r1,#2
        0x00100938:    ea447490    D..t    ORR      r4,r4,r0,LSR #30
        0x0010093c:    eb100580    ....    ADDS     r5,r0,r0,LSL #2
        0x00100940:    eb440401    D...    ADC      r4,r4,r1
        0x00100944:    196d        m.      ADDS     r5,r5,r5
        0x00100946:    eb440404    D...    ADC      r4,r4,r4
        0x0010094a:    1b52        R.      SUBS     r2,r2,r5
        0x0010094c:    41a3        .A      SBCS     r3,r3,r4
        0x0010094e:    f04f0300    O...    MOV      r3,#0
        0x00100952:    bf48        H.      IT       MI
        0x00100954:    320a        .2      ADDMI    r2,r2,#0xa
        0x00100956:    d500        ..      BPL      0x10095a ; _ll_udiv10 + 130
        0x00100958:    bd30        0.      POP      {r4,r5,pc}
        0x0010095a:    1c40        @.      ADDS     r0,r0,#1
        0x0010095c:    f1410100    A...    ADC      r1,r1,#0
        0x00100960:    bd30        0.      POP      {r4,r5,pc}
    .text
    _printf_int_common
        0x00100962:    e92d47f0    -..G    PUSH     {r4-r10,lr}
        0x00100966:    460d        .F      MOV      r5,r1
        0x00100968:    4699        .F      MOV      r9,r3
        0x0010096a:    4692        .F      MOV      r10,r2
        0x0010096c:    4604        .F      MOV      r4,r0
        0x0010096e:    f1000824    ..$.    ADD      r8,r0,#0x24
        0x00100972:    6801        .h      LDR      r1,[r0,#0]
        0x00100974:    0688        ..      LSLS     r0,r1,#26
        0x00100976:    d504        ..      BPL      0x100982 ; _printf_int_common + 32
        0x00100978:    69e0        .i      LDR      r0,[r4,#0x1c]
        0x0010097a:    f0210110    !...    BIC      r1,r1,#0x10
        0x0010097e:    6021        !`      STR      r1,[r4,#0]
        0x00100980:    e000        ..      B        0x100984 ; _printf_int_common + 34
        0x00100982:    2001        .       MOVS     r0,#1
        0x00100984:    42a8        .B      CMP      r0,r5
        0x00100986:    dd01        ..      BLE      0x10098c ; _printf_int_common + 42
        0x00100988:    1b47        G.      SUBS     r7,r0,r5
        0x0010098a:    e000        ..      B        0x10098e ; _printf_int_common + 44
        0x0010098c:    2700        .'      MOVS     r7,#0
        0x0010098e:    69a1        .i      LDR      r1,[r4,#0x18]
        0x00100990:    197a        z.      ADDS     r2,r7,r5
        0x00100992:    eb020009    ....    ADD      r0,r2,r9
        0x00100996:    1a08        ..      SUBS     r0,r1,r0
        0x00100998:    61a0        .a      STR      r0,[r4,#0x18]
        0x0010099a:    7820         x      LDRB     r0,[r4,#0]
        0x0010099c:    06c0        ..      LSLS     r0,r0,#27
        0x0010099e:    d402        ..      BMI      0x1009a6 ; _printf_int_common + 68
        0x001009a0:    4620         F      MOV      r0,r4
        0x001009a2:    f7fffcde    ....    BL       _printf_pre_padding ; 0x100362
        0x001009a6:    2600        .&      MOVS     r6,#0
        0x001009a8:    e008        ..      B        0x1009bc ; _printf_int_common + 90
        0x001009aa:    e9d42101    ...!    LDRD     r2,r1,[r4,#4]
        0x001009ae:    f81a0006    ....    LDRB     r0,[r10,r6]
        0x001009b2:    4790        .G      BLX      r2
        0x001009b4:    6a20         j      LDR      r0,[r4,#0x20]
        0x001009b6:    1c40        @.      ADDS     r0,r0,#1
        0x001009b8:    1c76        v.      ADDS     r6,r6,#1
        0x001009ba:    6220         b      STR      r0,[r4,#0x20]
        0x001009bc:    454e        NE      CMP      r6,r9
        0x001009be:    dbf4        ..      BLT      0x1009aa ; _printf_int_common + 72
        0x001009c0:    7820         x      LDRB     r0,[r4,#0]
        0x001009c2:    06c0        ..      LSLS     r0,r0,#27
        0x001009c4:    d50a        ..      BPL      0x1009dc ; _printf_int_common + 122
        0x001009c6:    4620         F      MOV      r0,r4
        0x001009c8:    f7fffccb    ....    BL       _printf_pre_padding ; 0x100362
        0x001009cc:    e006        ..      B        0x1009dc ; _printf_int_common + 122
        0x001009ce:    e9d42101    ...!    LDRD     r2,r1,[r4,#4]
        0x001009d2:    2030        0       MOVS     r0,#0x30
        0x001009d4:    4790        .G      BLX      r2
        0x001009d6:    6a20         j      LDR      r0,[r4,#0x20]
        0x001009d8:    1c40        @.      ADDS     r0,r0,#1
        0x001009da:    6220         b      STR      r0,[r4,#0x20]
        0x001009dc:    1e38        8.      SUBS     r0,r7,#0
        0x001009de:    f1a70701    ....    SUB      r7,r7,#1
        0x001009e2:    dcf4        ..      BGT      0x1009ce ; _printf_int_common + 108
        0x001009e4:    e007        ..      B        0x1009f6 ; _printf_int_common + 148
        0x001009e6:    e9d42101    ...!    LDRD     r2,r1,[r4,#4]
        0x001009ea:    f8180005    ....    LDRB     r0,[r8,r5]
        0x001009ee:    4790        .G      BLX      r2
        0x001009f0:    6a20         j      LDR      r0,[r4,#0x20]
        0x001009f2:    1c40        @.      ADDS     r0,r0,#1
        0x001009f4:    6220         b      STR      r0,[r4,#0x20]
        0x001009f6:    1e28        (.      SUBS     r0,r5,#0
        0x001009f8:    f1a50501    ....    SUB      r5,r5,#1
        0x001009fc:    dcf3        ..      BGT      0x1009e6 ; _printf_int_common + 132
        0x001009fe:    4620         F      MOV      r0,r4
        0x00100a00:    f7fffcc5    ....    BL       _printf_post_padding ; 0x10038e
        0x00100a04:    7820         x      LDRB     r0,[r4,#0]
        0x00100a06:    0600        ..      LSLS     r0,r0,#24
        0x00100a08:    d502        ..      BPL      0x100a10 ; _printf_int_common + 174
        0x00100a0a:    2002        .       MOVS     r0,#2
        0x00100a0c:    e8bd87f0    ....    POP      {r4-r10,pc}
        0x00100a10:    2001        .       MOVS     r0,#1
        0x00100a12:    e7fb        ..      B        0x100a0c ; _printf_int_common + 170
    .text
    _fp_digits
        0x00100a14:    e92d4fff    -..O    PUSH     {r0-r11,lr}
        0x00100a18:    460c        .F      MOV      r4,r1
        0x00100a1a:    461e        .F      MOV      r6,r3
        0x00100a1c:    f04f37ff    O..7    MOV      r7,#0xffffffff
        0x00100a20:    b08b        ..      SUB      sp,sp,#0x2c
        0x00100a22:    e9d20100    ....    LDRD     r0,r1,[r2,#0]
        0x00100a26:    f8dd8060    ..`.    LDR      r8,[sp,#0x60]
        0x00100a2a:    900a        ..      STR      r0,[sp,#0x28]
        0x00100a2c:    468a        .F      MOV      r10,r1
        0x00100a2e:    f3c1550a    ...U    UBFX     r5,r1,#20,#11
        0x00100a32:    b905        ..      CBNZ     r5,0x100a36 ; _fp_digits + 34
        0x00100a34:    463d        =F      MOV      r5,r7
        0x00100a36:    2100        .!      MOVS     r1,#0
        0x00100a38:    4608        .F      MOV      r0,r1
        0x00100a3a:    f04f0000    O...    MOV      r0,#0
        0x00100a3e:    f1ba0f00    ....    CMP      r10,#0
        0x00100a42:    f4000040    ..@.    AND      r0,r0,#0xc00000
        0x00100a46:    da05        ..      BGE      0x100a54 ; _fp_digits + 64
        0x00100a48:    eb000080    ....    ADD      r0,r0,r0,LSL #2
        0x00100a4c:    f44f0140    O.@.    MOV      r1,#0xc00000
        0x00100a50:    ea010050    ..P.    AND      r0,r1,r0,LSR #1
        0x00100a54:    ea4f5990    O..Y    LSR      r9,r0,#22
        0x00100a58:    f1b90f01    ....    CMP      r9,#1
        0x00100a5c:    dd00        ..      BLE      0x100a60 ; _fp_digits + 76
        0x00100a5e:    46b9        .F      MOV      r9,r7
        0x00100a60:    980a        ..      LDR      r0,[sp,#0x28]
        0x00100a62:    ea50004a    P.J.    ORRS     r0,r0,r10,LSL #1
        0x00100a66:    d00e        ..      BEQ      0x100a86 ; _fp_digits + 114
        0x00100a68:    f6445010    D..P    MOV      r0,#0x4d10
        0x00100a6c:    f2a535ff    ...5    SUB      r5,r5,#0x3ff
        0x00100a70:    4345        EC      MULS     r5,r0,r5
        0x00100a72:    142f        /.      ASRS     r7,r5,#16
        0x00100a74:    f1b80f00    ....    CMP      r8,#0
        0x00100a78:    d01e        ..      BEQ      0x100ab8 ; _fp_digits + 164
        0x00100a7a:    4275        uB      RSBS     r5,r6,#0
        0x00100a7c:    1e29        ).      SUBS     r1,r5,#0
        0x00100a7e:    dd1e        ..      BLE      0x100abe ; _fp_digits + 170
        0x00100a80:    f1c90200    ....    RSB      r2,r9,#0
        0x00100a84:    e01c        ..      B        0x100ac0 ; _fp_digits + 172
        0x00100a86:    f1b80f01    ....    CMP      r8,#1
        0x00100a8a:    f04f0000    O...    MOV      r0,#0
        0x00100a8e:    d001        ..      BEQ      0x100a94 ; _fp_digits + 128
        0x00100a90:    2130        0!      MOVS     r1,#0x30
        0x00100a92:    e003        ..      B        0x100a9c ; _fp_digits + 136
        0x00100a94:    43f2        .C      MVNS     r2,r6
        0x00100a96:    e005        ..      B        0x100aa4 ; _fp_digits + 144
        0x00100a98:    5421        !T      STRB     r1,[r4,r0]
        0x00100a9a:    1c40        @.      ADDS     r0,r0,#1
        0x00100a9c:    42b0        .B      CMP      r0,r6
        0x00100a9e:    dbfb        ..      BLT      0x100a98 ; _fp_digits + 132
        0x00100aa0:    4630        0F      MOV      r0,r6
        0x00100aa2:    2200        ."      MOVS     r2,#0
        0x00100aa4:    2100        .!      MOVS     r1,#0
        0x00100aa6:    5421        !T      STRB     r1,[r4,r0]
        0x00100aa8:    990b        ..      LDR      r1,[sp,#0x2c]
        0x00100aaa:    f8c18008    ....    STR      r8,[r1,#8]
        0x00100aae:    e9c12000    ...     STRD     r2,r0,[r1,#0]
        0x00100ab2:    b00f        ..      ADD      sp,sp,#0x3c
        0x00100ab4:    e8bd8ff0    ....    POP      {r4-r11,pc}
        0x00100ab8:    1bbd        ..      SUBS     r5,r7,r6
        0x00100aba:    1c6d        m.      ADDS     r5,r5,#1
        0x00100abc:    e7de        ..      B        0x100a7c ; _fp_digits + 104
        0x00100abe:    464a        JF      MOV      r2,r9
        0x00100ac0:    da00        ..      BGE      0x100ac4 ; _fp_digits + 176
        0x00100ac2:    4269        iB      RSBS     r1,r5,#0
        0x00100ac4:    a806        ..      ADD      r0,sp,#0x18
        0x00100ac6:    f000fbf3    ....    BL       _btod_etento ; 0x1012b0
        0x00100aca:    ab06        ..      ADD      r3,sp,#0x18
        0x00100acc:    e8930007    ....    LDM      r3,{r0-r2}
        0x00100ad0:    ab03        ..      ADD      r3,sp,#0xc
        0x00100ad2:    e8830007    ....    STM      r3,{r0-r2}
        0x00100ad6:    4650        PF      MOV      r0,r10
        0x00100ad8:    990a        ..      LDR      r1,[sp,#0x28]
        0x00100ada:    f003fa33    ..3.    BL       _btod_d2e ; 0x103f44
        0x00100ade:    e88d0007    ....    STM      sp,{r0-r2}
        0x00100ae2:    f5a05000    ...P    SUB      r0,r0,#0x2000
        0x00100ae6:    381f        .8      SUBS     r0,r0,#0x1f
        0x00100ae8:    9000        ..      STR      r0,[sp,#0]
        0x00100aea:    9803        ..      LDR      r0,[sp,#0xc]
        0x00100aec:    2d00        .-      CMP      r5,#0
        0x00100aee:    dd0a        ..      BLE      0x100b06 ; _fp_digits + 242
        0x00100af0:    f242011f    B...    MOV      r1,#0x201f
        0x00100af4:    464a        JF      MOV      r2,r9
        0x00100af6:    4408        .D      ADD      r0,r0,r1
        0x00100af8:    2300        .#      MOVS     r3,#0
        0x00100afa:    a903        ..      ADD      r1,sp,#0xc
        0x00100afc:    9003        ..      STR      r0,[sp,#0xc]
        0x00100afe:    4668        hF      MOV      r0,sp
        0x00100b00:    f003fc9c    ....    BL       _btod_ediv ; 0x10443c
        0x00100b04:    e009        ..      B        0x100b1a ; _fp_digits + 262
        0x00100b06:    f5a05000    ...P    SUB      r0,r0,#0x2000
        0x00100b0a:    464a        JF      MOV      r2,r9
        0x00100b0c:    381f        .8      SUBS     r0,r0,#0x1f
        0x00100b0e:    2300        .#      MOVS     r3,#0
        0x00100b10:    a903        ..      ADD      r1,sp,#0xc
        0x00100b12:    9003        ..      STR      r0,[sp,#0xc]
        0x00100b14:    4668        hF      MOV      r0,sp
        0x00100b16:    f003fca6    ....    BL       _btod_emul ; 0x104466
        0x00100b1a:    e88d0007    ....    STM      sp,{r0-r2}
        0x00100b1e:    0400        ..      LSLS     r0,r0,#16
        0x00100b20:    0c00        ..      LSRS     r0,r0,#16
        0x00100b22:    d003        ..      BEQ      0x100b2c ; _fp_digits + 280
        0x00100b24:    f04f30ff    O..0    MOV      r0,#0xffffffff
        0x00100b28:    0841        A.      LSRS     r1,r0,#1
        0x00100b2a:    e000        ..      B        0x100b2e ; _fp_digits + 282
        0x00100b2c:    4610        .F      MOV      r0,r2
        0x00100b2e:    f1b80f00    ....    CMP      r8,#0
        0x00100b32:    d003        ..      BEQ      0x100b3c ; _fp_digits + 296
        0x00100b34:    2200        ."      MOVS     r2,#0
        0x00100b36:    9200        ..      STR      r2,[sp,#0]
        0x00100b38:    4615        .F      MOV      r5,r2
        0x00100b3a:    e01e        ..      B        0x100b7a ; _fp_digits + 358
        0x00100b3c:    1e75        u.      SUBS     r5,r6,#1
        0x00100b3e:    d405        ..      BMI      0x100b4c ; _fp_digits + 312
        0x00100b40:    f7fffeca    ....    BL       _ll_udiv10 ; 0x1008d8
        0x00100b44:    3230        02      ADDS     r2,r2,#0x30
        0x00100b46:    5562        bU      STRB     r2,[r4,r5]
        0x00100b48:    1e6d        m.      SUBS     r5,r5,#1
        0x00100b4a:    d5f9        ..      BPL      0x100b40 ; _fp_digits + 300
        0x00100b4c:    46b3        .F      MOV      r11,r6
        0x00100b4e:    2201        ."      MOVS     r2,#1
        0x00100b50:    4308        .C      ORRS     r0,r0,r1
        0x00100b52:    d002        ..      BEQ      0x100b5a ; _fp_digits + 326
        0x00100b54:    2200        ."      MOVS     r2,#0
        0x00100b56:    1c7f        ..      ADDS     r7,r7,#1
        0x00100b58:    e004        ..      B        0x100b64 ; _fp_digits + 336
        0x00100b5a:    7820         x      LDRB     r0,[r4,#0]
        0x00100b5c:    2830        0(      CMP      r0,#0x30
        0x00100b5e:    d101        ..      BNE      0x100b64 ; _fp_digits + 336
        0x00100b60:    2200        ."      MOVS     r2,#0
        0x00100b62:    1e7f        ..      SUBS     r7,r7,#1
        0x00100b64:    2a00        .*      CMP      r2,#0
        0x00100b66:    9709        ..      STR      r7,[sp,#0x24]
        0x00100b68:    d084        ..      BEQ      0x100a74 ; _fp_digits + 96
        0x00100b6a:    e01d        ..      B        0x100ba8 ; _fp_digits + 404
        0x00100b6c:    2d11        .-      CMP      r5,#0x11
        0x00100b6e:    da07        ..      BGE      0x100b80 ; _fp_digits + 364
        0x00100b70:    f7fffeb2    ....    BL       _ll_udiv10 ; 0x1008d8
        0x00100b74:    3230        02      ADDS     r2,r2,#0x30
        0x00100b76:    5562        bU      STRB     r2,[r4,r5]
        0x00100b78:    1c6d        m.      ADDS     r5,r5,#1
        0x00100b7a:    ea500201    P...    ORRS     r2,r0,r1
        0x00100b7e:    d1f5        ..      BNE      0x100b6c ; _fp_digits + 344
        0x00100b80:    4308        .C      ORRS     r0,r0,r1
        0x00100b82:    d002        ..      BEQ      0x100b8a ; _fp_digits + 374
        0x00100b84:    9800        ..      LDR      r0,[sp,#0]
        0x00100b86:    b1c8        ..      CBZ      r0,0x100bbc ; _fp_digits + 424
        0x00100b88:    e00e        ..      B        0x100ba8 ; _fp_digits + 404
        0x00100b8a:    2100        .!      MOVS     r1,#0
        0x00100b8c:    1e68        h.      SUBS     r0,r5,#1
        0x00100b8e:    e005        ..      B        0x100b9c ; _fp_digits + 392
        0x00100b90:    5c23        #\      LDRB     r3,[r4,r0]
        0x00100b92:    5c62        b\      LDRB     r2,[r4,r1]
        0x00100b94:    5463        cT      STRB     r3,[r4,r1]
        0x00100b96:    5422        "T      STRB     r2,[r4,r0]
        0x00100b98:    1e40        @.      SUBS     r0,r0,#1
        0x00100b9a:    1c49        I.      ADDS     r1,r1,#1
        0x00100b9c:    4281        .B      CMP      r1,r0
        0x00100b9e:    dbf7        ..      BLT      0x100b90 ; _fp_digits + 380
        0x00100ba0:    46ab        .F      MOV      r11,r5
        0x00100ba2:    1ba8        ..      SUBS     r0,r5,r6
        0x00100ba4:    1e40        @.      SUBS     r0,r0,#1
        0x00100ba6:    9009        ..      STR      r0,[sp,#0x24]
        0x00100ba8:    2000        .       MOVS     r0,#0
        0x00100baa:    f804000b    ....    STRB     r0,[r4,r11]
        0x00100bae:    980b        ..      LDR      r0,[sp,#0x2c]
        0x00100bb0:    9a09        ..      LDR      r2,[sp,#0x24]
        0x00100bb2:    f8c08008    ....    STR      r8,[r0,#8]
        0x00100bb6:    e9c02b00    ...+    STRD     r2,r11,[r0,#0]
        0x00100bba:    e77a        z.      B        0x100ab2 ; _fp_digits + 158
        0x00100bbc:    2611        .&      MOVS     r6,#0x11
        0x00100bbe:    f04f0800    O...    MOV      r8,#0
        0x00100bc2:    e757        W.      B        0x100a74 ; _fp_digits + 96
    _printf_fp_dec_real
        0x00100bc4:    e92d4ff0    -..O    PUSH     {r4-r11,lr}
        0x00100bc8:    4688        .F      MOV      r8,r1
        0x00100bca:    4604        .F      MOV      r4,r0
        0x00100bcc:    1dd2        ..      ADDS     r2,r2,#7
        0x00100bce:    f0220107    "...    BIC      r1,r2,#7
        0x00100bd2:    b091        ..      SUB      sp,sp,#0x44
        0x00100bd4:    e9d10100    ....    LDRD     r0,r1,[r1,#0]
        0x00100bd8:    e9cd010a    ....    STRD     r0,r1,[sp,#0x28]
        0x00100bdc:    f003fd7a    ..z.    BL       __ARM_fpclassify ; 0x1046d4
        0x00100be0:    4602        .F      MOV      r2,r0
        0x00100be2:    980b        ..      LDR      r0,[sp,#0x2c]
        0x00100be4:    0fc0        ..      LSRS     r0,r0,#31
        0x00100be6:    d001        ..      BEQ      0x100bec ; _printf_fp_dec_real + 40
        0x00100be8:    202d        -       MOVS     r0,#0x2d
        0x00100bea:    e007        ..      B        0x100bfc ; _printf_fp_dec_real + 56
        0x00100bec:    6820         h      LDR      r0,[r4,#0]
        0x00100bee:    0781        ..      LSLS     r1,r0,#30
        0x00100bf0:    d501        ..      BPL      0x100bf6 ; _printf_fp_dec_real + 50
        0x00100bf2:    202b        +       MOVS     r0,#0x2b
        0x00100bf4:    e002        ..      B        0x100bfc ; _printf_fp_dec_real + 56
        0x00100bf6:    2120         !      MOVS     r1,#0x20
        0x00100bf8:    ea0100c0    ....    AND      r0,r1,r0,LSL #3
        0x00100bfc:    2a03        .*      CMP      r2,#3
        0x00100bfe:    9009        ..      STR      r0,[sp,#0x24]
        0x00100c00:    d001        ..      BEQ      0x100c06 ; _printf_fp_dec_real + 66
        0x00100c02:    2a07        .*      CMP      r2,#7
        0x00100c04:    db05        ..      BLT      0x100c12 ; _printf_fp_dec_real + 78
        0x00100c06:    4603        .F      MOV      r3,r0
        0x00100c08:    4641        AF      MOV      r1,r8
        0x00100c0a:    4620         F      MOV      r0,r4
        0x00100c0c:    f000fb10    ....    BL       _printf_fp_infnan ; 0x101230
        0x00100c10:    e10b        ..      B        0x100e2a ; _printf_fp_dec_real + 614
        0x00100c12:    7820         x      LDRB     r0,[r4,#0]
        0x00100c14:    0680        ..      LSLS     r0,r0,#26
        0x00100c16:    d501        ..      BPL      0x100c1c ; _printf_fp_dec_real + 88
        0x00100c18:    69e0        .i      LDR      r0,[r4,#0x1c]
        0x00100c1a:    e000        ..      B        0x100c1e ; _printf_fp_dec_real + 90
        0x00100c1c:    2006        .       MOVS     r0,#6
        0x00100c1e:    f1b80f65    ..e.    CMP      r8,#0x65
        0x00100c22:    4681        .F      MOV      r9,r0
        0x00100c24:    d006        ..      BEQ      0x100c34 ; _printf_fp_dec_real + 112
        0x00100c26:    f1b80f66    ..f.    CMP      r8,#0x66
        0x00100c2a:    d018        ..      BEQ      0x100c5e ; _printf_fp_dec_real + 154
        0x00100c2c:    f1b80f67    ..g.    CMP      r8,#0x67
        0x00100c30:    d170        p.      BNE      0x100d14 ; _printf_fp_dec_real + 336
        0x00100c32:    e031        1.      B        0x100c98 ; _printf_fp_dec_real + 212
        0x00100c34:    2000        .       MOVS     r0,#0
        0x00100c36:    f1b90f11    ....    CMP      r9,#0x11
        0x00100c3a:    9000        ..      STR      r0,[sp,#0]
        0x00100c3c:    db01        ..      BLT      0x100c42 ; _printf_fp_dec_real + 126
        0x00100c3e:    2311        .#      MOVS     r3,#0x11
        0x00100c40:    e001        ..      B        0x100c46 ; _printf_fp_dec_real + 130
        0x00100c42:    f1090301    ....    ADD      r3,r9,#1
        0x00100c46:    aa0a        ..      ADD      r2,sp,#0x28
        0x00100c48:    a901        ..      ADD      r1,sp,#4
        0x00100c4a:    a80c        ..      ADD      r0,sp,#0x30
        0x00100c4c:    f7fffee2    ....    BL       _fp_digits ; 0x100a14
        0x00100c50:    e9dd700c    ...p    LDRD     r7,r0,[sp,#0x30]
        0x00100c54:    2600        .&      MOVS     r6,#0
        0x00100c56:    f1090501    ....    ADD      r5,r9,#1
        0x00100c5a:    4683        .F      MOV      r11,r0
        0x00100c5c:    e047        G.      B        0x100cee ; _printf_fp_dec_real + 298
        0x00100c5e:    2001        .       MOVS     r0,#1
        0x00100c60:    464b        KF      MOV      r3,r9
        0x00100c62:    9000        ..      STR      r0,[sp,#0]
        0x00100c64:    f04f4700    O..G    MOV      r7,#0x80000000
        0x00100c68:    aa0a        ..      ADD      r2,sp,#0x28
        0x00100c6a:    a901        ..      ADD      r1,sp,#4
        0x00100c6c:    a80c        ..      ADD      r0,sp,#0x30
        0x00100c6e:    f7fffed1    ....    BL       _fp_digits ; 0x100a14
        0x00100c72:    e9ddb00d    ....    LDRD     r11,r0,[sp,#0x34]
        0x00100c76:    990c        ..      LDR      r1,[sp,#0x30]
        0x00100c78:    465d        ]F      MOV      r5,r11
        0x00100c7a:    2600        .&      MOVS     r6,#0
        0x00100c7c:    b910        ..      CBNZ     r0,0x100c84 ; _printf_fp_dec_real + 192
        0x00100c7e:    f1090001    ....    ADD      r0,r9,#1
        0x00100c82:    180d        ..      ADDS     r5,r1,r0
        0x00100c84:    ebb90005    ....    SUBS     r0,r9,r5
        0x00100c88:    d403        ..      BMI      0x100c92 ; _printf_fp_dec_real + 206
        0x00100c8a:    f1c036ff    ...6    RSB      r6,r0,#0xffffffff
        0x00100c8e:    f1090501    ....    ADD      r5,r9,#1
        0x00100c92:    eba50009    ....    SUB      r0,r5,r9
        0x00100c96:    e02b        +.      B        0x100cf0 ; _printf_fp_dec_real + 300
        0x00100c98:    f1b90f01    ....    CMP      r9,#1
        0x00100c9c:    da01        ..      BGE      0x100ca2 ; _printf_fp_dec_real + 222
        0x00100c9e:    f04f0901    O...    MOV      r9,#1
        0x00100ca2:    2000        .       MOVS     r0,#0
        0x00100ca4:    f1b90f11    ....    CMP      r9,#0x11
        0x00100ca8:    9000        ..      STR      r0,[sp,#0]
        0x00100caa:    4648        HF      MOV      r0,r9
        0x00100cac:    dd01        ..      BLE      0x100cb2 ; _printf_fp_dec_real + 238
        0x00100cae:    2311        .#      MOVS     r3,#0x11
        0x00100cb0:    e000        ..      B        0x100cb4 ; _printf_fp_dec_real + 240
        0x00100cb2:    4603        .F      MOV      r3,r0
        0x00100cb4:    aa0a        ..      ADD      r2,sp,#0x28
        0x00100cb6:    a901        ..      ADD      r1,sp,#4
        0x00100cb8:    a80c        ..      ADD      r0,sp,#0x30
        0x00100cba:    f7fffeab    ....    BL       _fp_digits ; 0x100a14
        0x00100cbe:    e9dd700c    ...p    LDRD     r7,r0,[sp,#0x30]
        0x00100cc2:    464d        MF      MOV      r5,r9
        0x00100cc4:    2600        .&      MOVS     r6,#0
        0x00100cc6:    4683        .F      MOV      r11,r0
        0x00100cc8:    7820         x      LDRB     r0,[r4,#0]
        0x00100cca:    0700        ..      LSLS     r0,r0,#28
        0x00100ccc:    d40a        ..      BMI      0x100ce4 ; _printf_fp_dec_real + 288
        0x00100cce:    45ab        .E      CMP      r11,r5
        0x00100cd0:    da00        ..      BGE      0x100cd4 ; _printf_fp_dec_real + 272
        0x00100cd2:    465d        ]F      MOV      r5,r11
        0x00100cd4:    a801        ..      ADD      r0,sp,#4
        0x00100cd6:    2d01        .-      CMP      r5,#1
        0x00100cd8:    dd04        ..      BLE      0x100ce4 ; _printf_fp_dec_real + 288
        0x00100cda:    1941        A.      ADDS     r1,r0,r5
        0x00100cdc:    f8111c01    ....    LDRB     r1,[r1,#-1]
        0x00100ce0:    2930        0)      CMP      r1,#0x30
        0x00100ce2:    d007        ..      BEQ      0x100cf4 ; _printf_fp_dec_real + 304
        0x00100ce4:    454f        OE      CMP      r7,r9
        0x00100ce6:    da02        ..      BGE      0x100cee ; _printf_fp_dec_real + 298
        0x00100ce8:    f1170f04    ....    CMN      r7,#4
        0x00100cec:    da04        ..      BGE      0x100cf8 ; _printf_fp_dec_real + 308
        0x00100cee:    2001        .       MOVS     r0,#1
        0x00100cf0:    4682        .F      MOV      r10,r0
        0x00100cf2:    e00f        ..      B        0x100d14 ; _printf_fp_dec_real + 336
        0x00100cf4:    1e6d        m.      SUBS     r5,r5,#1
        0x00100cf6:    e7ee        ..      B        0x100cd6 ; _printf_fp_dec_real + 274
        0x00100cf8:    2f00        ./      CMP      r7,#0
        0x00100cfa:    dc02        ..      BGT      0x100d02 ; _printf_fp_dec_real + 318
        0x00100cfc:    1bed        ..      SUBS     r5,r5,r7
        0x00100cfe:    443e        >D      ADD      r6,r6,r7
        0x00100d00:    e003        ..      B        0x100d0a ; _printf_fp_dec_real + 326
        0x00100d02:    1c78        x.      ADDS     r0,r7,#1
        0x00100d04:    42a8        .B      CMP      r0,r5
        0x00100d06:    dd00        ..      BLE      0x100d0a ; _printf_fp_dec_real + 326
        0x00100d08:    1c7d        }.      ADDS     r5,r7,#1
        0x00100d0a:    1bb8        ..      SUBS     r0,r7,r6
        0x00100d0c:    f1000a01    ....    ADD      r10,r0,#1
        0x00100d10:    f04f4700    O..G    MOV      r7,#0x80000000
        0x00100d14:    7820         x      LDRB     r0,[r4,#0]
        0x00100d16:    0700        ..      LSLS     r0,r0,#28
        0x00100d18:    d403        ..      BMI      0x100d22 ; _printf_fp_dec_real + 350
        0x00100d1a:    45aa        .E      CMP      r10,r5
        0x00100d1c:    db01        ..      BLT      0x100d22 ; _printf_fp_dec_real + 350
        0x00100d1e:    f04f3aff    O..:    MOV      r10,#0xffffffff
        0x00100d22:    2100        .!      MOVS     r1,#0
        0x00100d24:    f1b74f00    ...O    CMP      r7,#0x80000000
        0x00100d28:    f10d0843    ..C.    ADD      r8,sp,#0x43
        0x00100d2c:    f88d1043    ..C.    STRB     r1,[sp,#0x43]
        0x00100d30:    d024        $.      BEQ      0x100d7c ; _printf_fp_dec_real + 440
        0x00100d32:    2002        .       MOVS     r0,#2
        0x00100d34:    232b        +#      MOVS     r3,#0x2b
        0x00100d36:    2f00        ./      CMP      r7,#0
        0x00100d38:    da01        ..      BGE      0x100d3e ; _printf_fp_dec_real + 378
        0x00100d3a:    427f        .B      RSBS     r7,r7,#0
        0x00100d3c:    232d        -#      MOVS     r3,#0x2d
        0x00100d3e:    210a        .!      MOVS     r1,#0xa
        0x00100d40:    1e02        ..      SUBS     r2,r0,#0
        0x00100d42:    f1a00001    ....    SUB      r0,r0,#1
        0x00100d46:    dc00        ..      BGT      0x100d4a ; _printf_fp_dec_real + 390
        0x00100d48:    b15f        _.      CBZ      r7,0x100d62 ; _printf_fp_dec_real + 414
        0x00100d4a:    fb97fcf1    ....    SDIV     r12,r7,r1
        0x00100d4e:    fb97f2f1    ....    SDIV     r2,r7,r1
        0x00100d52:    fb017c1c    ...|    MLS      r12,r1,r12,r7
        0x00100d56:    4617        .F      MOV      r7,r2
        0x00100d58:    f10c0c30    ..0.    ADD      r12,r12,#0x30
        0x00100d5c:    f808cd01    ....    STRB     r12,[r8,#-1]!
        0x00100d60:    e7ee        ..      B        0x100d40 ; _printf_fp_dec_real + 380
        0x00100d62:    f1a80001    ....    SUB      r0,r8,#1
        0x00100d66:    7003        .p      STRB     r3,[r0,#0]
        0x00100d68:    8821        !.      LDRH     r1,[r4,#0]
        0x00100d6a:    0509        ..      LSLS     r1,r1,#20
        0x00100d6c:    d501        ..      BPL      0x100d72 ; _printf_fp_dec_real + 430
        0x00100d6e:    2145        E!      MOVS     r1,#0x45
        0x00100d70:    e000        ..      B        0x100d74 ; _printf_fp_dec_real + 432
        0x00100d72:    2165        e!      MOVS     r1,#0x65
        0x00100d74:    f1a00801    ....    SUB      r8,r0,#1
        0x00100d78:    f8001c01    ....    STRB     r1,[r0,#-1]
        0x00100d7c:    9809        ..      LDR      r0,[sp,#0x24]
        0x00100d7e:    a90f        ..      ADD      r1,sp,#0x3c
        0x00100d80:    eba10708    ....    SUB      r7,r1,r8
        0x00100d84:    1dff        ..      ADDS     r7,r7,#7
        0x00100d86:    b100        ..      CBZ      r0,0x100d8a ; _printf_fp_dec_real + 454
        0x00100d88:    2001        .       MOVS     r0,#1
        0x00100d8a:    1941        A.      ADDS     r1,r0,r5
        0x00100d8c:    eb0170ea    ...p    ADD      r0,r1,r10,ASR #31
        0x00100d90:    69a1        .i      LDR      r1,[r4,#0x18]
        0x00100d92:    4438        8D      ADD      r0,r0,r7
        0x00100d94:    1a08        ..      SUBS     r0,r1,r0
        0x00100d96:    1e40        @.      SUBS     r0,r0,#1
        0x00100d98:    61a0        .a      STR      r0,[r4,#0x18]
        0x00100d9a:    7820         x      LDRB     r0,[r4,#0]
        0x00100d9c:    06c0        ..      LSLS     r0,r0,#27
        0x00100d9e:    d402        ..      BMI      0x100da6 ; _printf_fp_dec_real + 482
        0x00100da0:    4620         F      MOV      r0,r4
        0x00100da2:    f7fffade    ....    BL       _printf_pre_padding ; 0x100362
        0x00100da6:    9809        ..      LDR      r0,[sp,#0x24]
        0x00100da8:    b128        (.      CBZ      r0,0x100db6 ; _printf_fp_dec_real + 498
        0x00100daa:    e9d42101    ...!    LDRD     r2,r1,[r4,#4]
        0x00100dae:    4790        .G      BLX      r2
        0x00100db0:    6a20         j      LDR      r0,[r4,#0x20]
        0x00100db2:    1c40        @.      ADDS     r0,r0,#1
        0x00100db4:    6220         b      STR      r0,[r4,#0x20]
        0x00100db6:    7820         x      LDRB     r0,[r4,#0]
        0x00100db8:    06c0        ..      LSLS     r0,r0,#27
        0x00100dba:    d522        ".      BPL      0x100e02 ; _printf_fp_dec_real + 574
        0x00100dbc:    4620         F      MOV      r0,r4
        0x00100dbe:    f7fffad0    ....    BL       _printf_pre_padding ; 0x100362
        0x00100dc2:    e01e        ..      B        0x100e02 ; _printf_fp_dec_real + 574
        0x00100dc4:    2e00        ..      CMP      r6,#0
        0x00100dc6:    db04        ..      BLT      0x100dd2 ; _printf_fp_dec_real + 526
        0x00100dc8:    45b3        .E      CMP      r11,r6
        0x00100dca:    dd02        ..      BLE      0x100dd2 ; _printf_fp_dec_real + 526
        0x00100dcc:    a801        ..      ADD      r0,sp,#4
        0x00100dce:    5d80        .]      LDRB     r0,[r0,r6]
        0x00100dd0:    e000        ..      B        0x100dd4 ; _printf_fp_dec_real + 528
        0x00100dd2:    2030        0       MOVS     r0,#0x30
        0x00100dd4:    e9d42101    ...!    LDRD     r2,r1,[r4,#4]
        0x00100dd8:    4790        .G      BLX      r2
        0x00100dda:    6a20         j      LDR      r0,[r4,#0x20]
        0x00100ddc:    1c40        @.      ADDS     r0,r0,#1
        0x00100dde:    6220         b      STR      r0,[r4,#0x20]
        0x00100de0:    1c76        v.      ADDS     r6,r6,#1
        0x00100de2:    f1aa0001    ....    SUB      r0,r10,#1
        0x00100de6:    ea5f0a00    _...    MOVS     r10,r0
        0x00100dea:    d10a        ..      BNE      0x100e02 ; _printf_fp_dec_real + 574
        0x00100dec:    f000fa1c    ....    BL       __rt_locale ; 0x101228
        0x00100df0:    68c0        .h      LDR      r0,[r0,#0xc]
        0x00100df2:    6801        .h      LDR      r1,[r0,#0]
        0x00100df4:    5c40        @\      LDRB     r0,[r0,r1]
        0x00100df6:    e9d42101    ...!    LDRD     r2,r1,[r4,#4]
        0x00100dfa:    4790        .G      BLX      r2
        0x00100dfc:    6a20         j      LDR      r0,[r4,#0x20]
        0x00100dfe:    1c40        @.      ADDS     r0,r0,#1
        0x00100e00:    6220         b      STR      r0,[r4,#0x20]
        0x00100e02:    1e28        (.      SUBS     r0,r5,#0
        0x00100e04:    f1a50501    ....    SUB      r5,r5,#1
        0x00100e08:    dcdc        ..      BGT      0x100dc4 ; _printf_fp_dec_real + 512
        0x00100e0a:    e007        ..      B        0x100e1c ; _printf_fp_dec_real + 600
        0x00100e0c:    e9d42101    ...!    LDRD     r2,r1,[r4,#4]
        0x00100e10:    f8180b01    ....    LDRB     r0,[r8],#1
        0x00100e14:    4790        .G      BLX      r2
        0x00100e16:    6a20         j      LDR      r0,[r4,#0x20]
        0x00100e18:    1c40        @.      ADDS     r0,r0,#1
        0x00100e1a:    6220         b      STR      r0,[r4,#0x20]
        0x00100e1c:    1e38        8.      SUBS     r0,r7,#0
        0x00100e1e:    f1a70701    ....    SUB      r7,r7,#1
        0x00100e22:    dcf3        ..      BGT      0x100e0c ; _printf_fp_dec_real + 584
        0x00100e24:    4620         F      MOV      r0,r4
        0x00100e26:    f7fffab2    ....    BL       _printf_post_padding ; 0x10038e
        0x00100e2a:    2003        .       MOVS     r0,#3
        0x00100e2c:    b011        ..      ADD      sp,sp,#0x44
        0x00100e2e:    e641        A.      B        0x100ab4 ; _fp_digits + 160
    .text
    _printf_fp_hex_real
        0x00100e30:    e92d4ff0    -..O    PUSH     {r4-r11,lr}
        0x00100e34:    4604        .F      MOV      r4,r0
        0x00100e36:    460d        .F      MOV      r5,r1
        0x00100e38:    1dd2        ..      ADDS     r2,r2,#7
        0x00100e3a:    f0220007    "...    BIC      r0,r2,#7
        0x00100e3e:    b089        ..      SUB      sp,sp,#0x24
        0x00100e40:    e9d09700    ....    LDRD     r9,r7,[r0,#0]
        0x00100e44:    4648        HF      MOV      r0,r9
        0x00100e46:    4639        9F      MOV      r1,r7
        0x00100e48:    f003fc44    ..D.    BL       __ARM_fpclassify ; 0x1046d4
        0x00100e4c:    4602        .F      MOV      r2,r0
        0x00100e4e:    0ff8        ..      LSRS     r0,r7,#31
        0x00100e50:    d001        ..      BEQ      0x100e56 ; _printf_fp_hex_real + 38
        0x00100e52:    232d        -#      MOVS     r3,#0x2d
        0x00100e54:    e007        ..      B        0x100e66 ; _printf_fp_hex_real + 54
        0x00100e56:    6820         h      LDR      r0,[r4,#0]
        0x00100e58:    0781        ..      LSLS     r1,r0,#30
        0x00100e5a:    d501        ..      BPL      0x100e60 ; _printf_fp_hex_real + 48
        0x00100e5c:    232b        +#      MOVS     r3,#0x2b
        0x00100e5e:    e002        ..      B        0x100e66 ; _printf_fp_hex_real + 54
        0x00100e60:    2120         !      MOVS     r1,#0x20
        0x00100e62:    ea0103c0    ....    AND      r3,r1,r0,LSL #3
        0x00100e66:    f88d3020    .. 0    STRB     r3,[sp,#0x20]
        0x00100e6a:    b10b        ..      CBZ      r3,0x100e70 ; _printf_fp_hex_real + 64
        0x00100e6c:    2001        .       MOVS     r0,#1
        0x00100e6e:    e000        ..      B        0x100e72 ; _printf_fp_hex_real + 66
        0x00100e70:    2000        .       MOVS     r0,#0
        0x00100e72:    2a03        .*      CMP      r2,#3
        0x00100e74:    4682        .F      MOV      r10,r0
        0x00100e76:    d001        ..      BEQ      0x100e7c ; _printf_fp_hex_real + 76
        0x00100e78:    2a07        .*      CMP      r2,#7
        0x00100e7a:    db04        ..      BLT      0x100e86 ; _printf_fp_hex_real + 86
        0x00100e7c:    4629        )F      MOV      r1,r5
        0x00100e7e:    4620         F      MOV      r0,r4
        0x00100e80:    f000f9d6    ....    BL       _printf_fp_infnan ; 0x101230
        0x00100e84:    e13f        ?.      B        0x101106 ; _printf_fp_hex_real + 726
        0x00100e86:    7820         x      LDRB     r0,[r4,#0]
        0x00100e88:    0680        ..      LSLS     r0,r0,#26
        0x00100e8a:    d401        ..      BMI      0x100e90 ; _printf_fp_hex_real + 96
        0x00100e8c:    250d        .%      MOVS     r5,#0xd
        0x00100e8e:    e000        ..      B        0x100e92 ; _printf_fp_hex_real + 98
        0x00100e90:    69e5        .i      LDR      r5,[r4,#0x1c]
        0x00100e92:    f3c7560a    ...V    UBFX     r6,r7,#20,#11
        0x00100e96:    2d0d        .-      CMP      r5,#0xd
        0x00100e98:    da49        I.      BGE      0x100f2e ; _printf_fp_hex_real + 254
        0x00100e9a:    2100        .!      MOVS     r1,#0
        0x00100e9c:    ea4f5b17    O..[    LSR      r11,r7,#20
        0x00100ea0:    4608        .F      MOV      r0,r1
        0x00100ea2:    f04f0000    O...    MOV      r0,#0
        0x00100ea6:    2f00        ./      CMP      r7,#0
        0x00100ea8:    f4000040    ..@.    AND      r0,r0,#0xc00000
        0x00100eac:    da07        ..      BGE      0x100ebe ; _printf_fp_hex_real + 142
        0x00100eae:    eb000080    ....    ADD      r0,r0,r0,LSL #2
        0x00100eb2:    f44f0140    O.@.    MOV      r1,#0xc00000
        0x00100eb6:    eb0070d0    ...p    ADD      r0,r0,r0,LSR #31
        0x00100eba:    ea010060    ..`.    AND      r0,r1,r0,ASR #1
        0x00100ebe:    1581        ..      ASRS     r1,r0,#22
        0x00100ec0:    2901        .)      CMP      r1,#1
        0x00100ec2:    dd01        ..      BLE      0x100ec8 ; _printf_fp_hex_real + 152
        0x00100ec4:    f04f31ff    O..1    MOV      r1,#0xffffffff
        0x00100ec8:    2200        ."      MOVS     r2,#0
        0x00100eca:    ea4f0c85    O...    LSL      r12,r5,#2
        0x00100ece:    f1bc0f18    ....    CMP      r12,#0x18
        0x00100ed2:    d306        ..      BCC      0x100ee2 ; _printf_fp_hex_real + 178
        0x00100ed4:    4613        .F      MOV      r3,r2
        0x00100ed6:    f1ac0018    ....    SUB      r0,r12,#0x18
        0x00100eda:    f04f5280    O..R    MOV      r2,#0x10000000
        0x00100ede:    40c2        .@      LSRS     r2,r2,r0
        0x00100ee0:    e003        ..      B        0x100eea ; _printf_fp_hex_real + 186
        0x00100ee2:    f44f1380    O...    MOV      r3,#0x100000
        0x00100ee6:    fa23f30c    #...    LSR      r3,r3,r12
        0x00100eea:    f10c0c0c    ....    ADD      r12,r12,#0xc
        0x00100eee:    f1bc0f20    .. .    CMP      r12,#0x20
        0x00100ef2:    d304        ..      BCC      0x100efe ; _printf_fp_hex_real + 206
        0x00100ef4:    f1ac0c20    .. .    SUB      r12,r12,#0x20
        0x00100ef8:    fa09f00c    ....    LSL      r0,r9,r12
        0x00100efc:    e001        ..      B        0x100f02 ; _printf_fp_hex_real + 210
        0x00100efe:    fa07f00c    ....    LSL      r0,r7,r12
        0x00100f02:    2900        .)      CMP      r1,#0
        0x00100f04:    f04f4800    O..H    MOV      r8,#0x80000000
        0x00100f08:    dd01        ..      BLE      0x100f0e ; _printf_fp_hex_real + 222
        0x00100f0a:    b918        ..      CBNZ     r0,0x100f14 ; _printf_fp_hex_real + 228
        0x00100f0c:    e00f        ..      B        0x100f2e ; _printf_fp_hex_real + 254
        0x00100f0e:    d10e        ..      BNE      0x100f2e ; _printf_fp_hex_real + 254
        0x00100f10:    4540        @E      CMP      r0,r8
        0x00100f12:    d30c        ..      BCC      0x100f2e ; _printf_fp_hex_real + 254
        0x00100f14:    eb190902    ....    ADDS     r9,r9,r2
        0x00100f18:    415f        _A      ADCS     r7,r7,r3
        0x00100f1a:    b921        !.      CBNZ     r1,0x100f26 ; _printf_fp_hex_real + 246
        0x00100f1c:    4540        @E      CMP      r0,r8
        0x00100f1e:    d102        ..      BNE      0x100f26 ; _printf_fp_hex_real + 246
        0x00100f20:    439f        .C      BICS     r7,r7,r3
        0x00100f22:    ea290902    )...    BIC      r9,r9,r2
        0x00100f26:    ebbb5f17    ..._    CMP      r11,r7,LSR #20
        0x00100f2a:    d000        ..      BEQ      0x100f2e ; _printf_fp_hex_real + 254
        0x00100f2c:    1c76        v.      ADDS     r6,r6,#1
        0x00100f2e:    8820         .      LDRH     r0,[r4,#0]
        0x00100f30:    0500        ..      LSLS     r0,r0,#20
        0x00100f32:    d502        ..      BPL      0x100f3a ; _printf_fp_hex_real + 266
        0x00100f34:    487b        {H      LDR      r0,[pc,#492] ; [0x101124] = 0x38aa
        0x00100f36:    4478        xD      ADD      r0,r0,pc
        0x00100f38:    e002        ..      B        0x100f40 ; _printf_fp_hex_real + 272
        0x00100f3a:    487a        zH      LDR      r0,[pc,#488] ; [0x101124] = 0x38aa
        0x00100f3c:    4478        xD      ADD      r0,r0,pc
        0x00100f3e:    3819        .8      SUBS     r0,r0,#0x19
        0x00100f40:    aa08        ..      ADD      r2,sp,#0x20
        0x00100f42:    2330        0#      MOVS     r3,#0x30
        0x00100f44:    f802300a    ...0    STRB     r3,[r2,r10]
        0x00100f48:    7c03        .|      LDRB     r3,[r0,#0x10]
        0x00100f4a:    f10a0101    ....    ADD      r1,r10,#1
        0x00100f4e:    2e00        ..      CMP      r6,#0
        0x00100f50:    f10a0a02    ....    ADD      r10,r10,#2
        0x00100f54:    5453        ST      STRB     r3,[r2,r1]
        0x00100f56:    466a        jF      MOV      r2,sp
        0x00100f58:    dc02        ..      BGT      0x100f60 ; _printf_fp_hex_real + 304
        0x00100f5a:    f04f0130    O.0.    MOV      r1,#0x30
        0x00100f5e:    e001        ..      B        0x100f64 ; _printf_fp_hex_real + 308
        0x00100f60:    f04f0131    O.1.    MOV      r1,#0x31
        0x00100f64:    f04f0801    O...    MOV      r8,#1
        0x00100f68:    f88d1000    ....    STRB     r1,[sp,#0]
        0x00100f6c:    d002        ..      BEQ      0x100f74 ; _printf_fp_hex_real + 324
        0x00100f6e:    f2a636ff    ...6    SUB      r6,r6,#0x3ff
        0x00100f72:    e003        ..      B        0x100f7c ; _printf_fp_hex_real + 332
        0x00100f74:    ea590147    Y.G.    ORRS     r1,r9,r7,LSL #1
        0x00100f78:    d000        ..      BEQ      0x100f7c ; _printf_fp_hex_real + 332
        0x00100f7a:    4e6b        kN      LDR      r6,[pc,#428] ; [0x101128] = 0xfffffc02
        0x00100f7c:    2d00        .-      CMP      r5,#0
        0x00100f7e:    dc02        ..      BGT      0x100f86 ; _printf_fp_hex_real + 342
        0x00100f80:    7821        !x      LDRB     r1,[r4,#0]
        0x00100f82:    0709        ..      LSLS     r1,r1,#28
        0x00100f84:    d504        ..      BPL      0x100f90 ; _printf_fp_hex_real + 352
        0x00100f86:    f04f0802    O...    MOV      r8,#2
        0x00100f8a:    212e        .!      MOVS     r1,#0x2e
        0x00100f8c:    f88d1001    ....    STRB     r1,[sp,#1]
        0x00100f90:    46c4        .F      MOV      r12,r8
        0x00100f92:    2100        .!      MOVS     r1,#0
        0x00100f94:    e00b        ..      B        0x100fae ; _printf_fp_hex_real + 382
        0x00100f96:    f3c74303    ...C    UBFX     r3,r7,#16,#4
        0x00100f9a:    013f        ?.      LSLS     r7,r7,#4
        0x00100f9c:    5cc3        .\      LDRB     r3,[r0,r3]
        0x00100f9e:    1c49        I.      ADDS     r1,r1,#1
        0x00100fa0:    1e6d        m.      SUBS     r5,r5,#1
        0x00100fa2:    f8023008    ...0    STRB     r3,[r2,r8]
        0x00100fa6:    2905        .)      CMP      r1,#5
        0x00100fa8:    f1080801    ....    ADD      r8,r8,#1
        0x00100fac:    da01        ..      BGE      0x100fb2 ; _printf_fp_hex_real + 386
        0x00100fae:    2d00        .-      CMP      r5,#0
        0x00100fb0:    dcf1        ..      BGT      0x100f96 ; _printf_fp_hex_real + 358
        0x00100fb2:    2100        .!      MOVS     r1,#0
        0x00100fb4:    e00c        ..      B        0x100fd0 ; _printf_fp_hex_real + 416
        0x00100fb6:    eb007319    ...s    ADD      r3,r0,r9,LSR #28
        0x00100fba:    1c49        I.      ADDS     r1,r1,#1
        0x00100fbc:    781b        .x      LDRB     r3,[r3,#0]
        0x00100fbe:    1e6d        m.      SUBS     r5,r5,#1
        0x00100fc0:    2908        .)      CMP      r1,#8
        0x00100fc2:    f8023008    ...0    STRB     r3,[r2,r8]
        0x00100fc6:    ea4f1909    O...    LSL      r9,r9,#4
        0x00100fca:    f1080801    ....    ADD      r8,r8,#1
        0x00100fce:    da01        ..      BGE      0x100fd4 ; _printf_fp_hex_real + 420
        0x00100fd0:    2d00        .-      CMP      r5,#0
        0x00100fd2:    dcf0        ..      BGT      0x100fb6 ; _printf_fp_hex_real + 390
        0x00100fd4:    6821        !h      LDR      r1,[r4,#0]
        0x00100fd6:    068b        ..      LSLS     r3,r1,#26
        0x00100fd8:    d502        ..      BPL      0x100fe0 ; _printf_fp_hex_real + 432
        0x00100fda:    e016        ..      B        0x10100a ; _printf_fp_hex_real + 474
        0x00100fdc:    f1a80801    ....    SUB      r8,r8,#1
        0x00100fe0:    45e0        .E      CMP      r8,r12
        0x00100fe2:    dd05        ..      BLE      0x100ff0 ; _printf_fp_hex_real + 448
        0x00100fe4:    eb020308    ....    ADD      r3,r2,r8
        0x00100fe8:    f8133c01    ...<    LDRB     r3,[r3,#-1]
        0x00100fec:    2b30        0+      CMP      r3,#0x30
        0x00100fee:    d0f5        ..      BEQ      0x100fdc ; _printf_fp_hex_real + 428
        0x00100ff0:    f1b80f00    ....    CMP      r8,#0
        0x00100ff4:    dd09        ..      BLE      0x10100a ; _printf_fp_hex_real + 474
        0x00100ff6:    eb020308    ....    ADD      r3,r2,r8
        0x00100ffa:    f8133c01    ...<    LDRB     r3,[r3,#-1]
        0x00100ffe:    2b2e        .+      CMP      r3,#0x2e
        0x00101000:    d103        ..      BNE      0x10100a ; _printf_fp_hex_real + 474
        0x00101002:    0709        ..      LSLS     r1,r1,#28
        0x00101004:    d401        ..      BMI      0x10100a ; _printf_fp_hex_real + 474
        0x00101006:    f1a80801    ....    SUB      r8,r8,#1
        0x0010100a:    2d00        .-      CMP      r5,#0
        0x0010100c:    dd05        ..      BLE      0x10101a ; _printf_fp_hex_real + 490
        0x0010100e:    213e        >!      MOVS     r1,#0x3e
        0x00101010:    f8021008    ....    STRB     r1,[r2,r8]
        0x00101014:    1e6d        m.      SUBS     r5,r5,#1
        0x00101016:    f1080801    ....    ADD      r8,r8,#1
        0x0010101a:    7c40        @|      LDRB     r0,[r0,#0x11]
        0x0010101c:    2e00        ..      CMP      r6,#0
        0x0010101e:    f8020008    ....    STRB     r0,[r2,r8]
        0x00101022:    f1080801    ....    ADD      r8,r8,#1
        0x00101026:    da04        ..      BGE      0x101032 ; _printf_fp_hex_real + 514
        0x00101028:    202d        -       MOVS     r0,#0x2d
        0x0010102a:    4276        vB      RSBS     r6,r6,#0
        0x0010102c:    f8020008    ....    STRB     r0,[r2,r8]
        0x00101030:    e002        ..      B        0x101038 ; _printf_fp_hex_real + 520
        0x00101032:    202b        +       MOVS     r0,#0x2b
        0x00101034:    f8020008    ....    STRB     r0,[r2,r8]
        0x00101038:    210a        .!      MOVS     r1,#0xa
        0x0010103a:    f44f707a    O.zp    MOV      r0,#0x3e8
        0x0010103e:    4286        .B      CMP      r6,r0
        0x00101040:    f1080801    ....    ADD      r8,r8,#1
        0x00101044:    db0b        ..      BLT      0x10105e ; _printf_fp_hex_real + 558
        0x00101046:    fb96f3f0    ....    SDIV     r3,r6,r0
        0x0010104a:    3330        03      ADDS     r3,r3,#0x30
        0x0010104c:    f8023008    ...0    STRB     r3,[r2,r8]
        0x00101050:    fb96f3f0    ....    SDIV     r3,r6,r0
        0x00101054:    f1080801    ....    ADD      r8,r8,#1
        0x00101058:    fb006613    ...f    MLS      r6,r0,r3,r6
        0x0010105c:    e001        ..      B        0x101062 ; _printf_fp_hex_real + 562
        0x0010105e:    2e64        d.      CMP      r6,#0x64
        0x00101060:    db0c        ..      BLT      0x10107c ; _printf_fp_hex_real + 588
        0x00101062:    2064        d       MOVS     r0,#0x64
        0x00101064:    fb96f3f0    ....    SDIV     r3,r6,r0
        0x00101068:    3330        03      ADDS     r3,r3,#0x30
        0x0010106a:    f8023008    ...0    STRB     r3,[r2,r8]
        0x0010106e:    fb96f3f0    ....    SDIV     r3,r6,r0
        0x00101072:    f1080801    ....    ADD      r8,r8,#1
        0x00101076:    fb006613    ...f    MLS      r6,r0,r3,r6
        0x0010107a:    e001        ..      B        0x101080 ; _printf_fp_hex_real + 592
        0x0010107c:    2e0a        ..      CMP      r6,#0xa
        0x0010107e:    db06        ..      BLT      0x10108e ; _printf_fp_hex_real + 606
        0x00101080:    fb96f0f1    ....    SDIV     r0,r6,r1
        0x00101084:    3030        00      ADDS     r0,r0,#0x30
        0x00101086:    f8020008    ....    STRB     r0,[r2,r8]
        0x0010108a:    f1080801    ....    ADD      r8,r8,#1
        0x0010108e:    fb96f0f1    ....    SDIV     r0,r6,r1
        0x00101092:    fb016010    ...`    MLS      r0,r1,r0,r6
        0x00101096:    3030        00      ADDS     r0,r0,#0x30
        0x00101098:    f8020008    ....    STRB     r0,[r2,r8]
        0x0010109c:    69a1        .i      LDR      r1,[r4,#0x18]
        0x0010109e:    f1080801    ....    ADD      r8,r8,#1
        0x001010a2:    eb080205    ....    ADD      r2,r8,r5
        0x001010a6:    eb02000a    ....    ADD      r0,r2,r10
        0x001010aa:    1a08        ..      SUBS     r0,r1,r0
        0x001010ac:    61a0        .a      STR      r0,[r4,#0x18]
        0x001010ae:    7820         x      LDRB     r0,[r4,#0]
        0x001010b0:    06c0        ..      LSLS     r0,r0,#27
        0x001010b2:    d402        ..      BMI      0x1010ba ; _printf_fp_hex_real + 650
        0x001010b4:    4620         F      MOV      r0,r4
        0x001010b6:    f7fff954    ..T.    BL       _printf_pre_padding ; 0x100362
        0x001010ba:    6a21        !j      LDR      r1,[r4,#0x20]
        0x001010bc:    ae08        ..      ADD      r6,sp,#0x20
        0x001010be:    eb01000a    ....    ADD      r0,r1,r10
        0x001010c2:    6220         b      STR      r0,[r4,#0x20]
        0x001010c4:    e004        ..      B        0x1010d0 ; _printf_fp_hex_real + 672
        0x001010c6:    e9d42101    ...!    LDRD     r2,r1,[r4,#4]
        0x001010ca:    f8160b01    ....    LDRB     r0,[r6],#1
        0x001010ce:    4790        .G      BLX      r2
        0x001010d0:    f1ba0a01    ....    SUBS     r10,r10,#1
        0x001010d4:    d2f7        ..      BCS      0x1010c6 ; _printf_fp_hex_real + 662
        0x001010d6:    7820         x      LDRB     r0,[r4,#0]
        0x001010d8:    06c0        ..      LSLS     r0,r0,#27
        0x001010da:    d502        ..      BPL      0x1010e2 ; _printf_fp_hex_real + 690
        0x001010dc:    4620         F      MOV      r0,r4
        0x001010de:    f7fff940    ..@.    BL       _printf_pre_padding ; 0x100362
        0x001010e2:    466e        nF      MOV      r6,sp
        0x001010e4:    e009        ..      B        0x1010fa ; _printf_fp_hex_real + 714
        0x001010e6:    f8160b01    ....    LDRB     r0,[r6],#1
        0x001010ea:    283e        >(      CMP      r0,#0x3e
        0x001010ec:    d00f        ..      BEQ      0x10110e ; _printf_fp_hex_real + 734
        0x001010ee:    e9d42101    ...!    LDRD     r2,r1,[r4,#4]
        0x001010f2:    4790        .G      BLX      r2
        0x001010f4:    6a20         j      LDR      r0,[r4,#0x20]
        0x001010f6:    1c40        @.      ADDS     r0,r0,#1
        0x001010f8:    6220         b      STR      r0,[r4,#0x20]
        0x001010fa:    f1b80801    ....    SUBS     r8,r8,#1
        0x001010fe:    d2f2        ..      BCS      0x1010e6 ; _printf_fp_hex_real + 694
        0x00101100:    4620         F      MOV      r0,r4
        0x00101102:    f7fff944    ..D.    BL       _printf_post_padding ; 0x10038e
        0x00101106:    b009        ..      ADD      sp,sp,#0x24
        0x00101108:    2003        .       MOVS     r0,#3
        0x0010110a:    e8bd8ff0    ....    POP      {r4-r11,pc}
        0x0010110e:    6a20         j      LDR      r0,[r4,#0x20]
        0x00101110:    4428        (D      ADD      r0,r0,r5
        0x00101112:    6220         b      STR      r0,[r4,#0x20]
        0x00101114:    e003        ..      B        0x10111e ; _printf_fp_hex_real + 750
        0x00101116:    e9d42101    ...!    LDRD     r2,r1,[r4,#4]
        0x0010111a:    2030        0       MOVS     r0,#0x30
        0x0010111c:    4790        .G      BLX      r2
        0x0010111e:    1e6d        m.      SUBS     r5,r5,#1
        0x00101120:    d3eb        ..      BCC      0x1010fa ; _printf_fp_hex_real + 714
        0x00101122:    e7f8        ..      B        0x101116 ; _printf_fp_hex_real + 742
    $d
        0x00101124:    000038aa    .8..    DCD    14506
        0x00101128:    fffffc02    ....    DCD    4294966274
    $t
    .text
    _printf_cs_common
        0x0010112c:    b510        ..      PUSH     {r4,lr}
        0x0010112e:    6943        Ci      LDR      r3,[r0,#0x14]
        0x00101130:    b113        ..      CBZ      r3,0x101138 ; _printf_cs_common + 12
        0x00101132:    f3af8000    ....    NOP.W    
        0x00101136:    e001        ..      B        0x10113c ; _printf_cs_common + 16
        0x00101138:    f7fff94c    ..L.    BL       _printf_str ; 0x1003d4
        0x0010113c:    2001        .       MOVS     r0,#1
        0x0010113e:    bd10        ..      POP      {r4,pc}
    _printf_char
        0x00101140:    7812        .x      LDRB     r2,[r2,#0]
        0x00101142:    f1000124    ..$.    ADD      r1,r0,#0x24
        0x00101146:    700a        .p      STRB     r2,[r1,#0]
        0x00101148:    2200        ."      MOVS     r2,#0
        0x0010114a:    704a        Jp      STRB     r2,[r1,#1]
        0x0010114c:    2201        ."      MOVS     r2,#1
        0x0010114e:    e7ed        ..      B        _printf_cs_common ; 0x10112c
    _printf_string
        0x00101150:    6811        .h      LDR      r1,[r2,#0]
        0x00101152:    f04f32ff    O..2    MOV      r2,#0xffffffff
        0x00101156:    e7e9        ..      B        _printf_cs_common ; 0x10112c
    .text
    _printf_lcs_common
        0x00101158:    b510        ..      PUSH     {r4,lr}
        0x0010115a:    6943        Ci      LDR      r3,[r0,#0x14]
        0x0010115c:    b113        ..      CBZ      r3,0x101164 ; _printf_lcs_common + 12
        0x0010115e:    f3af8000    ....    NOP.W    
        0x00101162:    e001        ..      B        0x101168 ; _printf_lcs_common + 16
        0x00101164:    f7fff9d6    ....    BL       _printf_wctomb ; 0x100514
        0x00101168:    2001        .       MOVS     r0,#1
        0x0010116a:    bd10        ..      POP      {r4,pc}
    _printf_wchar
        0x0010116c:    6812        .h      LDR      r2,[r2,#0]
        0x0010116e:    f1000124    ..$.    ADD      r1,r0,#0x24
        0x00101172:    6242        Bb      STR      r2,[r0,#0x24]
        0x00101174:    2200        ."      MOVS     r2,#0
        0x00101176:    6282        .b      STR      r2,[r0,#0x28]
        0x00101178:    2201        ."      MOVS     r2,#1
        0x0010117a:    e7ed        ..      B        _printf_lcs_common ; 0x101158
    _printf_wstring
        0x0010117c:    6811        .h      LDR      r1,[r2,#0]
        0x0010117e:    f04f32ff    O..2    MOV      r2,#0xffffffff
        0x00101182:    e7e9        ..      B        _printf_lcs_common ; 0x101158
    .text
    _c32rtomb
    _wcrtomb
        0x00101184:    e92d41f0    -..A    PUSH     {r4-r8,lr}
        0x00101188:    4616        .F      MOV      r6,r2
        0x0010118a:    460c        .F      MOV      r4,r1
        0x0010118c:    4605        .F      MOV      r5,r0
        0x0010118e:    f000f843    ..C.    BL       __rt_ctype_table ; 0x101218
        0x00101192:    6803        .h      LDR      r3,[r0,#0]
        0x00101194:    f8930101    ....    LDRB     r0,[r3,#0x101]
        0x00101198:    2801        .(      CMP      r0,#1
        0x0010119a:    d007        ..      BEQ      0x1011ac ; _c32rtomb + 40
        0x0010119c:    2cff        .,      CMP      r4,#0xff
        0x0010119e:    d812        ..      BHI      0x1011c6 ; _c32rtomb + 66
        0x001011a0:    5d18        .]      LDRB     r0,[r3,r4]
        0x001011a2:    b180        ..      CBZ      r0,0x1011c6 ; _c32rtomb + 66
        0x001011a4:    2001        .       MOVS     r0,#1
        0x001011a6:    702c        ,p      STRB     r4,[r5,#0]
        0x001011a8:    e8bd81f0    ....    POP      {r4-r8,pc}
        0x001011ac:    f8d30107    ....    LDR      r0,[r3,#0x107]
        0x001011b0:    4632        2F      MOV      r2,r6
        0x001011b2:    4621        !F      MOV      r1,r4
        0x001011b4:    f2031307    ....    ADD      r3,r3,#0x107
        0x001011b8:    18c7        ..      ADDS     r7,r0,r3
        0x001011ba:    4628        (F      MOV      r0,r5
        0x001011bc:    46bc        .F      MOV      r12,r7
        0x001011be:    e8bd41f0    ...A    POP      {r4-r8,lr}
        0x001011c2:    2301        .#      MOVS     r3,#1
        0x001011c4:    4760        `G      BX       r12
        0x001011c6:    f04f30ff    O..0    MOV      r0,#0xffffffff
        0x001011ca:    e7ed        ..      B        0x1011a8 ; _c32rtomb + 36
    .text
    __user_setup_stackheap
        0x001011cc:    4675        uF      MOV      r5,lr
        0x001011ce:    f000f911    ....    BL       __user_libspace ; 0x1013f4
        0x001011d2:    46ae        .F      MOV      lr,r5
        0x001011d4:    0005        ..      MOVS     r5,r0
        0x001011d6:    4669        iF      MOV      r1,sp
        0x001011d8:    4653        SF      MOV      r3,r10
        0x001011da:    f0200007     ...    BIC      r0,r0,#7
        0x001011de:    4685        .F      MOV      sp,r0
        0x001011e0:    b018        ..      ADD      sp,sp,#0x60
        0x001011e2:    b520         .      PUSH     {r5,lr}
        0x001011e4:    f7fff840    ..@.    BL       __user_initial_stackheap ; 0x100268
        0x001011e8:    e8bd4020    .. @    POP      {r5,lr}
        0x001011ec:    f04f0600    O...    MOV      r6,#0
        0x001011f0:    f04f0700    O...    MOV      r7,#0
        0x001011f4:    f04f0800    O...    MOV      r8,#0
        0x001011f8:    f04f0b00    O...    MOV      r11,#0
        0x001011fc:    46ac        .F      MOV      r12,r5
        0x001011fe:    e8ac09c0    ....    STM      r12!,{r6-r8,r11}
        0x00101202:    e8ac09c0    ....    STM      r12!,{r6-r8,r11}
        0x00101206:    e8ac09c0    ....    STM      r12!,{r6-r8,r11}
        0x0010120a:    e8ac09c0    ....    STM      r12!,{r6-r8,r11}
        0x0010120e:    f0210107    !...    BIC      r1,r1,#7
        0x00101212:    468d        .F      MOV      sp,r1
        0x00101214:    4770        pG      BX       lr
        0x00101216:    0000        ..      MOVS     r0,r0
    .text
    __rt_ctype_table
        0x00101218:    b510        ..      PUSH     {r4,lr}
        0x0010121a:    f000f805    ....    BL       __rt_locale ; 0x101228
        0x0010121e:    1d00        ..      ADDS     r0,r0,#4
        0x00101220:    bd10        ..      POP      {r4,pc}
        0x00101222:    bf00        ..      NOP      
    $d
        0x00101224:    0000351d    .5..    DCD    13597
    $t
    .text
    __rt_locale
        0x00101228:    4800        .H      LDR      r0,[pc,#0] ; [0x10122c] = 0x20100040
        0x0010122a:    4770        pG      BX       lr
    $d
        0x0010122c:    20100040    @..     DCD    537919552
    $t
    .text
    _printf_fp_infnan
        0x00101230:    e92d41f0    -..A    PUSH     {r4-r8,lr}
        0x00101234:    461f        .F      MOV      r7,r3
        0x00101236:    4604        .F      MOV      r4,r0
        0x00101238:    2603        .&      MOVS     r6,#3
        0x0010123a:    6801        .h      LDR      r1,[r0,#0]
        0x0010123c:    2a07        .*      CMP      r2,#7
        0x0010123e:    f4016000    ...`    AND      r0,r1,#0x800
        0x00101242:    db04        ..      BLT      0x10124e ; _printf_fp_infnan + 30
        0x00101244:    b108        ..      CBZ      r0,0x10124a ; _printf_fp_infnan + 26
        0x00101246:    a516        ..      ADR      r5,{pc}+0x5a ; 0x1012a0
        0x00101248:    e005        ..      B        0x101256 ; _printf_fp_infnan + 38
        0x0010124a:    a516        ..      ADR      r5,{pc}+0x5a ; 0x1012a4
        0x0010124c:    e003        ..      B        0x101256 ; _printf_fp_infnan + 38
        0x0010124e:    b108        ..      CBZ      r0,0x101254 ; _printf_fp_infnan + 36
        0x00101250:    a515        ..      ADR      r5,{pc}+0x58 ; 0x1012a8
        0x00101252:    e000        ..      B        0x101256 ; _printf_fp_infnan + 38
        0x00101254:    a515        ..      ADR      r5,{pc}+0x58 ; 0x1012ac
        0x00101256:    f0210010    !...    BIC      r0,r1,#0x10
        0x0010125a:    6020         `      STR      r0,[r4,#0]
        0x0010125c:    69a0        .i      LDR      r0,[r4,#0x18]
        0x0010125e:    1ec0        ..      SUBS     r0,r0,#3
        0x00101260:    61a0        .a      STR      r0,[r4,#0x18]
        0x00101262:    b10f        ..      CBZ      r7,0x101268 ; _printf_fp_infnan + 56
        0x00101264:    1e40        @.      SUBS     r0,r0,#1
        0x00101266:    61a0        .a      STR      r0,[r4,#0x18]
        0x00101268:    4620         F      MOV      r0,r4
        0x0010126a:    f7fff87a    ..z.    BL       _printf_pre_padding ; 0x100362
        0x0010126e:    b14f        O.      CBZ      r7,0x101284 ; _printf_fp_infnan + 84
        0x00101270:    e9d42101    ...!    LDRD     r2,r1,[r4,#4]
        0x00101274:    4638        8F      MOV      r0,r7
        0x00101276:    4790        .G      BLX      r2
        0x00101278:    6a20         j      LDR      r0,[r4,#0x20]
        0x0010127a:    1c40        @.      ADDS     r0,r0,#1
        0x0010127c:    6220         b      STR      r0,[r4,#0x20]
        0x0010127e:    1cc0        ..      ADDS     r0,r0,#3
        0x00101280:    6220         b      STR      r0,[r4,#0x20]
        0x00101282:    e006        ..      B        0x101292 ; _printf_fp_infnan + 98
        0x00101284:    6a20         j      LDR      r0,[r4,#0x20]
        0x00101286:    e7fa        ..      B        0x10127e ; _printf_fp_infnan + 78
        0x00101288:    e9d42101    ...!    LDRD     r2,r1,[r4,#4]
        0x0010128c:    f8150b01    ....    LDRB     r0,[r5],#1
        0x00101290:    4790        .G      BLX      r2
        0x00101292:    1e76        v.      SUBS     r6,r6,#1
        0x00101294:    d2f8        ..      BCS      0x101288 ; _printf_fp_infnan + 88
        0x00101296:    4620         F      MOV      r0,r4
        0x00101298:    f7fff879    ..y.    BL       _printf_post_padding ; 0x10038e
        0x0010129c:    e8bd81f0    ....    POP      {r4-r8,pc}
    $d
        0x001012a0:    004e414e    NAN.    DCD    5128526
        0x001012a4:    006e616e    nan.    DCD    7233902
        0x001012a8:    00464e49    INF.    DCD    4607561
        0x001012ac:    00666e69    inf.    DCD    6712937
    $t
    .text
    _btod_etento
        0x001012b0:    e92d47f0    -..G    PUSH     {r4-r10,lr}
        0x001012b4:    4681        .F      MOV      r9,r0
        0x001012b6:    4616        .F      MOV      r6,r2
        0x001012b8:    b08a        ..      SUB      sp,sp,#0x28
        0x001012ba:    4835        5H      LDR      r0,[pc,#212] ; [0x101390] = 0x35b4
        0x001012bc:    4478        xD      ADD      r0,r0,pc
        0x001012be:    c80d        ..      LDM      r0,{r0,r2,r3}
        0x001012c0:    e88d000d    ....    STM      sp,{r0,r2,r3}
        0x001012c4:    4832        2H      LDR      r0,[pc,#200] ; [0x101390] = 0x35b4
        0x001012c6:    4478        xD      ADD      r0,r0,pc
        0x001012c8:    1c80        ..      ADDS     r0,r0,#2
        0x001012ca:    ac03        ..      ADD      r4,sp,#0xc
        0x001012cc:    c80d        ..      LDM      r0,{r0,r2,r3}
        0x001012ce:    e884000d    ....    STM      r4,{r0,r2,r3}
        0x001012d2:    f641309b    A..0    MOV      r0,#0x1b9b
        0x001012d6:    4408        .D      ADD      r0,r0,r1
        0x001012d8:    2137        7!      MOVS     r1,#0x37
        0x001012da:    fb90f2f1    ....    SDIV     r2,r0,r1
        0x001012de:    fb90f5f1    ....    SDIV     r5,r0,r1
        0x001012e2:    f1a50580    ....    SUB      r5,r5,#0x80
        0x001012e6:    fb010412    ....    MLS      r4,r1,r2,r0
        0x001012ea:    3c1b        .<      SUBS     r4,r4,#0x1b
        0x001012ec:    d502        ..      BPL      0x1012f4 ; _btod_etento + 68
        0x001012ee:    4264        dB      RSBS     r4,r4,#0
        0x001012f0:    2001        .       MOVS     r0,#1
        0x001012f2:    e000        ..      B        0x1012f6 ; _btod_etento + 70
        0x001012f4:    2000        .       MOVS     r0,#0
        0x001012f6:    f8dfa098    ....    LDR      r10,[pc,#152] ; [0x101390] = 0x35b4
        0x001012fa:    4680        .F      MOV      r8,r0
        0x001012fc:    2700        .'      MOVS     r7,#0
        0x001012fe:    44fa        .D      ADD      r10,r10,pc
        0x00101300:    f1aa0abe    ....    SUB      r10,r10,#0xbe
        0x00101304:    e00e        ..      B        0x101324 ; _btod_etento + 116
        0x00101306:    07e0        ..      LSLS     r0,r4,#31
        0x00101308:    d00a        ..      BEQ      0x101320 ; _btod_etento + 112
        0x0010130a:    4632        2F      MOV      r2,r6
        0x0010130c:    4668        hF      MOV      r0,sp
        0x0010130e:    eb070147    ..G.    ADD      r1,r7,r7,LSL #1
        0x00101312:    2301        .#      MOVS     r3,#1
        0x00101314:    eb0a0181    ....    ADD      r1,r10,r1,LSL #2
        0x00101318:    f003f8a5    ....    BL       _btod_emul ; 0x104466
        0x0010131c:    e88d0007    ....    STM      sp,{r0-r2}
        0x00101320:    1064        d.      ASRS     r4,r4,#1
        0x00101322:    1c7f        ..      ADDS     r7,r7,#1
        0x00101324:    2c00        .,      CMP      r4,#0
        0x00101326:    d1ee        ..      BNE      0x101306 ; _btod_etento + 86
        0x00101328:    4f19        .O      LDR      r7,[pc,#100] ; [0x101390] = 0x35b4
        0x0010132a:    447f        .D      ADD      r7,r7,pc
        0x0010132c:    3fae        .?      SUBS     r7,r7,#0xae
        0x0010132e:    e019        ..      B        0x101364 ; _btod_etento + 180
        0x00101330:    07e8        ..      LSLS     r0,r5,#31
        0x00101332:    d015        ..      BEQ      0x101360 ; _btod_etento + 176
        0x00101334:    eb071004    ....    ADD      r0,r7,r4,LSL #4
        0x00101338:    f10d0a18    ....    ADD      r10,sp,#0x18
        0x0010133c:    e890000e    ....    LDM      r0,{r1-r3}
        0x00101340:    e88a000e    ....    STM      r10,{r1-r3}
        0x00101344:    68c0        .h      LDR      r0,[r0,#0xc]
        0x00101346:    42f0        .B      CMN      r0,r6
        0x00101348:    d101        ..      BNE      0x10134e ; _btod_etento + 158
        0x0010134a:    1998        ..      ADDS     r0,r3,r6
        0x0010134c:    9008        ..      STR      r0,[sp,#0x20]
        0x0010134e:    4632        2F      MOV      r2,r6
        0x00101350:    2301        .#      MOVS     r3,#1
        0x00101352:    a906        ..      ADD      r1,sp,#0x18
        0x00101354:    a803        ..      ADD      r0,sp,#0xc
        0x00101356:    f003f886    ....    BL       _btod_emul ; 0x104466
        0x0010135a:    ab03        ..      ADD      r3,sp,#0xc
        0x0010135c:    e8830007    ....    STM      r3,{r0-r2}
        0x00101360:    106d        m.      ASRS     r5,r5,#1
        0x00101362:    1c64        d.      ADDS     r4,r4,#1
        0x00101364:    2d00        .-      CMP      r5,#0
        0x00101366:    d1e3        ..      BNE      0x101330 ; _btod_etento + 128
        0x00101368:    f04f0301    O...    MOV      r3,#1
        0x0010136c:    4632        2F      MOV      r2,r6
        0x0010136e:    4669        iF      MOV      r1,sp
        0x00101370:    f1b80f00    ....    CMP      r8,#0
        0x00101374:    a803        ..      ADD      r0,sp,#0xc
        0x00101376:    d002        ..      BEQ      0x10137e ; _btod_etento + 206
        0x00101378:    f003f860    ..`.    BL       _btod_ediv ; 0x10443c
        0x0010137c:    e001        ..      B        0x101382 ; _btod_etento + 210
        0x0010137e:    f003f872    ..r.    BL       _btod_emul ; 0x104466
        0x00101382:    e9c90100    ....    STRD     r0,r1,[r9,#0]
        0x00101386:    f8c92008    ...     STR      r2,[r9,#8]
        0x0010138a:    b00a        ..      ADD      sp,sp,#0x28
        0x0010138c:    e8bd87f0    ....    POP      {r4-r10,pc}
    $d
        0x00101390:    000035b4    .5..    DCD    13748
    $t
    .text
    exit
        0x00101394:    b510        ..      PUSH     {r4,lr}
        0x00101396:    4604        .F      MOV      r4,r0
        0x00101398:    f3af8000    ....    NOP.W    
        0x0010139c:    4620         F      MOV      r0,r4
        0x0010139e:    e8bd4010    ...@    POP      {r4,lr}
        0x001013a2:    f7febf2c    ..,.    B        __rt_exit ; 0x1001fe
    .text
    __aeabi_memclr4
    __aeabi_memclr8
    __rt_memclr_w
        0x001013a6:    f04f0200    O...    MOV      r2,#0
    _memset_w
        0x001013aa:    b500        ..      PUSH     {lr}
        0x001013ac:    4613        .F      MOV      r3,r2
        0x001013ae:    4694        .F      MOV      r12,r2
        0x001013b0:    4696        .F      MOV      lr,r2
        0x001013b2:    3920         9      SUBS     r1,r1,#0x20
        0x001013b4:    bf22        ".      ITTT     CS
        0x001013b6:    e8a0500c    ...P    STMCS    r0!,{r2,r3,r12,lr}
        0x001013ba:    e8a0500c    ...P    STMCS    r0!,{r2,r3,r12,lr}
        0x001013be:    f1b10120    .. .    SUBSCS   r1,r1,#0x20
        0x001013c2:    f4bfaff7    ....    BCS.W    0x1013b4 ; _memset_w + 10
        0x001013c6:    0709        ..      LSLS     r1,r1,#28
        0x001013c8:    bf28        (.      IT       CS
        0x001013ca:    e8a0500c    ...P    STMCS    r0!,{r2,r3,r12,lr}
        0x001013ce:    bf48        H.      IT       MI
        0x001013d0:    c00c        ..      STMMI    r0!,{r2,r3}
        0x001013d2:    f85deb04    ]...    POP      {lr}
        0x001013d6:    0089        ..      LSLS     r1,r1,#2
        0x001013d8:    bf28        (.      IT       CS
        0x001013da:    f8402b04    @..+    STRCS    r2,[r0],#4
        0x001013de:    bf08        ..      IT       EQ
        0x001013e0:    4770        pG      BXEQ     lr
        0x001013e2:    bf48        H.      IT       MI
        0x001013e4:    f8202b02     ..+    STRHMI   r2,[r0],#2
        0x001013e8:    f0114f80    ...O    TST      r1,#0x40000000
        0x001013ec:    bf18        ..      IT       NE
        0x001013ee:    f8002b01    ...+    STRBNE   r2,[r0],#1
        0x001013f2:    4770        pG      BX       lr
    .text
    __user_libspace
    __user_perproc_libspace
    __user_perthread_libspace
        0x001013f4:    4800        .H      LDR      r0,[pc,#0] ; [0x1013f8] = 0x20100020
        0x001013f6:    4770        pG      BX       lr
    $d
        0x001013f8:    20100020     ..     DCD    537919520
    $t
    .text
    __aeabi_memcpy4
    __aeabi_memcpy8
    __rt_memcpy_w
        0x001013fc:    b510        ..      PUSH     {r4,lr}
        0x001013fe:    3a20         :      SUBS     r2,r2,#0x20
        0x00101400:    f0c0800b    ....    BCC.W    0x10141a ; __aeabi_memcpy4 + 30
        0x00101404:    e8b15018    ...P    LDM      r1!,{r3,r4,r12,lr}
        0x00101408:    e8a05018    ...P    STM      r0!,{r3,r4,r12,lr}
        0x0010140c:    e8b15018    ...P    LDM      r1!,{r3,r4,r12,lr}
        0x00101410:    e8a05018    ...P    STM      r0!,{r3,r4,r12,lr}
        0x00101414:    3a20         :      SUBS     r2,r2,#0x20
        0x00101416:    f4bfaff5    ....    BCS.W    0x101404 ; __aeabi_memcpy4 + 8
        0x0010141a:    ea5f7c02    _..|    LSLS     r12,r2,#28
        0x0010141e:    bf24        $.      ITT      CS
        0x00101420:    e8b15018    ...P    LDMCS    r1!,{r3,r4,r12,lr}
        0x00101424:    e8a05018    ...P    STMCS    r0!,{r3,r4,r12,lr}
        0x00101428:    bf44        D.      ITT      MI
        0x0010142a:    c918        ..      LDMMI    r1!,{r3,r4}
        0x0010142c:    c018        ..      STMMI    r0!,{r3,r4}
        0x0010142e:    e8bd4010    ...@    POP      {r4,lr}
        0x00101432:    ea5f7c82    _..|    LSLS     r12,r2,#30
        0x00101436:    bf24        $.      ITT      CS
        0x00101438:    f8513b04    Q..;    LDRCS    r3,[r1],#4
        0x0010143c:    f8403b04    @..;    STRCS    r3,[r0],#4
        0x00101440:    bf08        ..      IT       EQ
        0x00101442:    4770        pG      BXEQ     lr
    _memcpy_lastbytes_aligned
        0x00101444:    07d2        ..      LSLS     r2,r2,#31
        0x00101446:    bf28        (.      IT       CS
        0x00101448:    f8313b02    1..;    LDRHCS   r3,[r1],#2
        0x0010144c:    bf48        H.      IT       MI
        0x0010144e:    f8112b01    ...+    LDRBMI   r2,[r1],#1
        0x00101452:    bf28        (.      IT       CS
        0x00101454:    f8203b02     ..;    STRHCS   r3,[r0],#2
        0x00101458:    bf48        H.      IT       MI
        0x0010145a:    f8002b01    ...+    STRBMI   r2,[r0],#1
        0x0010145e:    4770        pG      BX       lr
    .text
    _sys_exit
        0x00101460:    4901        .I      LDR      r1,[pc,#4] ; [0x101468] = 0x20026
        0x00101462:    2018        .       MOVS     r0,#0x18
        0x00101464:    beab        ..      BKPT     #0xab
        0x00101466:    e7fe        ..      B        0x101466 ; _sys_exit + 6
    $d
        0x00101468:    00020026    &...    DCD    131110
    $t
    .text
    __aeabi_memcpy
    __rt_memcpy
        0x0010146c:    2a03        .*      CMP      r2,#3
        0x0010146e:    f2408030    @.0.    BLS.W    _memcpy_lastbytes ; 0x1014d2
        0x00101472:    f0100c03    ....    ANDS     r12,r0,#3
        0x00101476:    f0008015    ....    BEQ.W    0x1014a4 ; __aeabi_memcpy + 56
        0x0010147a:    f8113b01    ...;    LDRB     r3,[r1],#1
        0x0010147e:    f1bc0f02    ....    CMP      r12,#2
        0x00101482:    4462        bD      ADD      r2,r2,r12
        0x00101484:    bf98        ..      IT       LS
        0x00101486:    f811cb01    ....    LDRBLS   r12,[r1],#1
        0x0010148a:    f8003b01    ...;    STRB     r3,[r0],#1
        0x0010148e:    bf38        8.      IT       CC
        0x00101490:    f8113b01    ...;    LDRBCC   r3,[r1],#1
        0x00101494:    f1a20204    ....    SUB      r2,r2,#4
        0x00101498:    bf98        ..      IT       LS
        0x0010149a:    f800cb01    ....    STRBLS   r12,[r0],#1
        0x0010149e:    bf38        8.      IT       CC
        0x001014a0:    f8003b01    ...;    STRBCC   r3,[r0],#1
        0x001014a4:    f0110303    ....    ANDS     r3,r1,#3
        0x001014a8:    f43fafa8    ?...    BEQ.W    __aeabi_memcpy4 ; 0x1013fc
        0x001014ac:    3a08        .:      SUBS     r2,r2,#8
        0x001014ae:    f0c08008    ....    BCC.W    0x1014c2 ; __aeabi_memcpy + 86
        0x001014b2:    f8513b04    Q..;    LDR      r3,[r1],#4
        0x001014b6:    3a08        .:      SUBS     r2,r2,#8
        0x001014b8:    f851cb04    Q...    LDR      r12,[r1],#4
        0x001014bc:    e8a01008    ....    STM      r0!,{r3,r12}
        0x001014c0:    e7f5        ..      B        0x1014ae ; __aeabi_memcpy + 66
        0x001014c2:    1d12        ..      ADDS     r2,r2,#4
        0x001014c4:    bf5c        \.      ITT      PL
        0x001014c6:    f8513b04    Q..;    LDRPL    r3,[r1],#4
        0x001014ca:    f8403b04    @..;    STRPL    r3,[r0],#4
        0x001014ce:    f3af8000    ....    NOP.W    
    _memcpy_lastbytes
        0x001014d2:    07d2        ..      LSLS     r2,r2,#31
        0x001014d4:    bf24        $.      ITT      CS
        0x001014d6:    f8113b01    ...;    LDRBCS   r3,[r1],#1
        0x001014da:    f811cb01    ....    LDRBCS   r12,[r1],#1
        0x001014de:    bf48        H.      IT       MI
        0x001014e0:    f8112b01    ...+    LDRBMI   r2,[r1],#1
        0x001014e4:    bf24        $.      ITT      CS
        0x001014e6:    f8003b01    ...;    STRBCS   r3,[r0],#1
        0x001014ea:    f800cb01    ....    STRBCS   r12,[r0],#1
        0x001014ee:    bf48        H.      IT       MI
        0x001014f0:    f8002b01    ...+    STRBMI   r2,[r0],#1
        0x001014f4:    4770        pG      BX       lr
    .text
    __I$use$semihosting
    __use_no_semihosting_swi
        0x001014f6:    4770        pG      BX       lr
    .text
    .text
    __aeabi_memset4
    __aeabi_memset8
    __semihosting_library_function
        0x001014f8:    f00203ff    ....    AND      r3,r2,#0xff
        0x001014fc:    ea432203    C.."    ORR      r2,r3,r3,LSL #8
        0x00101500:    ea424202    B..B    ORR      r2,r2,r2,LSL #16
        0x00101504:    f7ffbf51    ..Q.    B.W      _memset_w ; 0x1013aa
        0x00101508:    0000        ..      MOVS     r0,r0
        0x0010150a:    0000        ..      MOVS     r0,r0
        0x0010150c:    0000        ..      MOVS     r0,r0
        0x0010150e:    0000        ..      MOVS     r0,r0
    $t.82
    PendSV_Handler
        0x00101510:    4b2c        ,K      LDR      r3,[pc,#176] ; [0x1015c4] = 0x20100344
        0x00101512:    6818        .h      LDR      r0,[r3,#0]
        0x00101514:    4b2a        *K      LDR      r3,[pc,#168] ; [0x1015c0] = 0x20100100
        0x00101516:    6819        .h      LDR      r1,[r3,#0]
        0x00101518:    f3ef8209    ....    MRS      r2,PSP
        0x0010151c:    b178        x.      CBZ      r0,0x10153e ; 0x10153e
        0x0010151e:    b507        ..      PUSH     {r0-r2,lr}
        0x00101520:    f702fe0e    ....    BL       SecureContext_SaveContext ; 0x4140
        0x00101524:    bc0f        ..      POP      {r0-r3}
        0x00101526:    469e        .F      MOV      lr,r3
        0x00101528:    0659        Y.      LSLS     r1,r3,#25
        0x0010152a:    d508        ..      BPL      0x10153e ; 0x10153e
        0x0010152c:    4b24        $K      LDR      r3,[pc,#144] ; [0x1015c0] = 0x20100100
        0x0010152e:    6819        .h      LDR      r1,[r3,#0]
        0x00101530:    3a0c        .:      SUBS     r2,r2,#0xc
        0x00101532:    600a        .`      STR      r2,[r1,#0]
        0x00101534:    f3ef810b    ....    MRS      r1,PSPLIM
        0x00101538:    4673        sF      MOV      r3,lr
        0x0010153a:    c20b        ..      STM      r2!,{r0,r1,r3}
        0x0010153c:    e010        ..      B        0x101560 ; 0x101560
    save_ns_context
        0x0010153e:    4b20         K      LDR      r3,[pc,#128] ; [0x1015c0] = 0x20100100
        0x00101540:    6819        .h      LDR      r1,[r3,#0]
        0x00101542:    f01e0f10    ....    TST      lr,#0x10
        0x00101546:    bf08        ..      IT       EQ
        0x00101548:    ed228a10    "...    VSTMDBEQ r2!,{s16-s31}
        0x0010154c:    3a2c        ,:      SUBS     r2,r2,#0x2c
        0x0010154e:    600a        .`      STR      r2,[r1,#0]
        0x00101550:    320c        .2      ADDS     r2,r2,#0xc
        0x00101552:    e8820ff0    ....    STM      r2,{r4-r11}
        0x00101556:    f3ef810b    ....    MRS      r1,PSPLIM
        0x0010155a:    4673        sF      MOV      r3,lr
        0x0010155c:    3a0c        .:      SUBS     r2,r2,#0xc
        0x0010155e:    c20b        ..      STM      r2!,{r0,r1,r3}
    select_next_task
        0x00101560:    f04f00a0    O...    MOV      r0,#0xa0
        0x00101564:    f3808811    ....    MSR      BASEPRI,r0
        0x00101568:    f3bf8f4f    ..O.    DSB      
        0x0010156c:    f3bf8f6f    ..o.    ISB      
        0x00101570:    f001fe3e    ..>.    BL       vTaskSwitchContext ; 0x1031f0
        0x00101574:    f04f0000    O...    MOV      r0,#0
        0x00101578:    f3808811    ....    MSR      BASEPRI,r0
        0x0010157c:    4b10        .K      LDR      r3,[pc,#64] ; [0x1015c0] = 0x20100100
        0x0010157e:    6819        .h      LDR      r1,[r3,#0]
        0x00101580:    680a        .h      LDR      r2,[r1,#0]
        0x00101582:    ca13        ..      LDM      r2!,{r0,r1,r4}
        0x00101584:    f381880b    ....    MSR      PSPLIM,r1
        0x00101588:    46a6        .F      MOV      lr,r4
        0x0010158a:    4b0e        .K      LDR      r3,[pc,#56] ; [0x1015c4] = 0x20100344
        0x0010158c:    6018        .`      STR      r0,[r3,#0]
        0x0010158e:    b158        X.      CBZ      r0,0x1015a8 ; 0x1015a8
        0x00101590:    4b0b        .K      LDR      r3,[pc,#44] ; [0x1015c0] = 0x20100100
        0x00101592:    6819        .h      LDR      r1,[r3,#0]
        0x00101594:    b414        ..      PUSH     {r2,r4}
        0x00101596:    f702fdcf    ....    BL       SecureContext_LoadContext ; 0x4138
        0x0010159a:    bc14        ..      POP      {r2,r4}
        0x0010159c:    46a6        .F      MOV      lr,r4
        0x0010159e:    0661        a.      LSLS     r1,r4,#25
        0x001015a0:    d502        ..      BPL      0x1015a8 ; 0x1015a8
        0x001015a2:    f3828809    ....    MSR      PSP,r2
        0x001015a6:    4770        pG      BX       lr
    restore_ns_context
        0x001015a8:    e8b20ff0    ....    LDM      r2!,{r4-r11}
        0x001015ac:    f01e0f10    ....    TST      lr,#0x10
        0x001015b0:    bf08        ..      IT       EQ
        0x001015b2:    ecb28a10    ....    VLDMEQ   r2!,{s16-s31}
        0x001015b6:    f3828809    ....    MSR      PSP,r2
        0x001015ba:    4770        pG      BX       lr
        0x001015bc:    bf00        ..      NOP      
        0x001015be:    bf00        ..      NOP      
    $d.83
    pxCurrentTCBConst
        0x001015c0:    20100100    ...     DCD    537919744
    xSecureContextConst
        0x001015c4:    20100344    D..     DCD    537920324
        0x001015c8:    00000000    ....    DCD    0
        0x001015cc:    00000000    ....    DCD    0
    $t.84
    SVC_Handler
        0x001015d0:    f01e0f04    ....    TST      lr,#4
        0x001015d4:    bf0c        ..      ITE      EQ
        0x001015d6:    f3ef8008    ....    MRSEQ    r0,MSP
        0x001015da:    f3ef8009    ....    MRSNE    r0,PSP
        0x001015de:    4904        .I      LDR      r1,[pc,#16] ; [0x1015f0] = 0x102d4d
        0x001015e0:    4708        .G      BX       r1
        0x001015e2:    bf00        ..      NOP      
        0x001015e4:    bf00        ..      NOP      
        0x001015e6:    bf00        ..      NOP      
        0x001015e8:    bf00        ..      NOP      
        0x001015ea:    bf00        ..      NOP      
        0x001015ec:    bf00        ..      NOP      
        0x001015ee:    bf00        ..      NOP      
    $d.85
    svchandler_address_const
        0x001015f0:    00102d4d    M-..    DCD    1060173
    $t.65
    SysTick_Handler
        0x001015f4:    b580        ..      PUSH     {r7,lr}
        0x001015f6:    b082        ..      SUB      sp,sp,#8
        0x001015f8:    f001f9c4    ....    BL       ulSetInterruptMask ; 0x102984
        0x001015fc:    9001        ..      STR      r0,[sp,#4]
        0x001015fe:    f002f967    ..g.    BL       xTaskIncrementTick ; 0x1038d0
        0x00101602:    b140        @.      CBZ      r0,0x101616 ; SysTick_Handler + 34
        0x00101604:    e7ff        ..      B        0x101606 ; SysTick_Handler + 18
        0x00101606:    f64e5004    N..P    MOV      r0,#0xed04
        0x0010160a:    f2ce0000    ....    MOVT     r0,#0xe000
        0x0010160e:    f04f5180    O..Q    MOV      r1,#0x10000000
        0x00101612:    6001        .`      STR      r1,[r0,#0]
        0x00101614:    e7ff        ..      B        0x101616 ; SysTick_Handler + 34
        0x00101616:    9801        ..      LDR      r0,[sp,#4]
        0x00101618:    f001fa4a    ..J.    BL       vClearInterruptMask ; 0x102ab0
        0x0010161c:    b002        ..      ADD      sp,sp,#8
        0x0010161e:    bd80        ..      POP      {r7,pc}
    SystemInit
        0x00101620:    b580        ..      PUSH     {r7,lr}
        0x00101622:    b084        ..      SUB      sp,sp,#0x10
        0x00101624:    f001f9a6    ....    BL       tz_put_char_int ; 0x102974
        0x00101628:    f2400000    @...    MOVW     r0,#0
        0x0010162c:    f2c00010    ....    MOVT     r0,#0x10
        0x00101630:    f64e5108    N..Q    MOV      r1,#0xed08
        0x00101634:    f2ce0100    ....    MOVT     r1,#0xe000
        0x00101638:    6008        .`      STR      r0,[r1,#0]
        0x0010163a:    f64e5088    N..P    MOV      r0,#0xed88
        0x0010163e:    f2ce0000    ....    MOVT     r0,#0xe000
        0x00101642:    6801        .h      LDR      r1,[r0,#0]
        0x00101644:    f4410170    A.p.    ORR      r1,r1,#0xf00000
        0x00101648:    6001        .`      STR      r1,[r0,#0]
        0x0010164a:    f64e5078    N.xP    MOV      r0,#0xed78
        0x0010164e:    f2ce0000    ....    MOVT     r0,#0xe000
        0x00101652:    6800        .h      LDR      r0,[r0,#0]
        0x00101654:    07c0        ..      LSLS     r0,r0,#31
        0x00101656:    b330        0.      CBZ      r0,0x1016a6 ; SystemInit + 134
        0x00101658:    e7ff        ..      B        0x10165a ; SystemInit + 58
        0x0010165a:    f64e5014    N..P    MOV      r0,#0xed14
        0x0010165e:    f2ce0000    ....    MOVT     r0,#0xe000
        0x00101662:    6800        .h      LDR      r0,[r0,#0]
        0x00101664:    0380        ..      LSLS     r0,r0,#14
        0x00101666:    2800        .(      CMP      r0,#0
        0x00101668:    d501        ..      BPL      0x10166e ; SystemInit + 78
        0x0010166a:    e7ff        ..      B        0x10166c ; SystemInit + 76
        0x0010166c:    e01a        ..      B        0x1016a4 ; SystemInit + 132
        0x0010166e:    f3bf8f4f    ..O.    DSB      
        0x00101672:    f3bf8f6f    ..o.    ISB      
        0x00101676:    f64e7050    N.Pp    MOV      r0,#0xef50
        0x0010167a:    f2ce0000    ....    MOVT     r0,#0xe000
        0x0010167e:    2100        .!      MOVS     r1,#0
        0x00101680:    6001        .`      STR      r1,[r0,#0]
        0x00101682:    f3bf8f4f    ..O.    DSB      
        0x00101686:    f3bf8f6f    ..o.    ISB      
        0x0010168a:    f64e5014    N..P    MOV      r0,#0xed14
        0x0010168e:    f2ce0000    ....    MOVT     r0,#0xe000
        0x00101692:    6801        .h      LDR      r1,[r0,#0]
        0x00101694:    f4413100    A..1    ORR      r1,r1,#0x20000
        0x00101698:    6001        .`      STR      r1,[r0,#0]
        0x0010169a:    f3bf8f4f    ..O.    DSB      
        0x0010169e:    f3bf8f6f    ..o.    ISB      
        0x001016a2:    e7ff        ..      B        0x1016a4 ; SystemInit + 132
        0x001016a4:    e7ff        ..      B        0x1016a6 ; SystemInit + 134
        0x001016a6:    f64e5078    N.xP    MOV      r0,#0xed78
        0x001016aa:    f2ce0000    ....    MOVT     r0,#0xe000
        0x001016ae:    6800        .h      LDR      r0,[r0,#0]
        0x001016b0:    07c0        ..      LSLS     r0,r0,#31
        0x001016b2:    2800        .(      CMP      r0,#0
        0x001016b4:    d048        H.      BEQ      0x101748 ; SystemInit + 296
        0x001016b6:    e7ff        ..      B        0x1016b8 ; SystemInit + 152
        0x001016b8:    f64e5014    N..P    MOV      r0,#0xed14
        0x001016bc:    f2ce0000    ....    MOVT     r0,#0xe000
        0x001016c0:    6800        .h      LDR      r0,[r0,#0]
        0x001016c2:    03c0        ..      LSLS     r0,r0,#15
        0x001016c4:    2800        .(      CMP      r0,#0
        0x001016c6:    d501        ..      BPL      0x1016cc ; SystemInit + 172
        0x001016c8:    e7ff        ..      B        0x1016ca ; SystemInit + 170
        0x001016ca:    e03c        <.      B        0x101746 ; SystemInit + 294
        0x001016cc:    f64e5084    N..P    MOV      r0,#0xed84
        0x001016d0:    f2ce0000    ....    MOVT     r0,#0xe000
        0x001016d4:    2100        .!      MOVS     r1,#0
        0x001016d6:    6001        .`      STR      r1,[r0,#0]
        0x001016d8:    f3bf8f4f    ..O.    DSB      
        0x001016dc:    f64e5080    N..P    MOV      r0,#0xed80
        0x001016e0:    f2ce0000    ....    MOVT     r0,#0xe000
        0x001016e4:    6800        .h      LDR      r0,[r0,#0]
        0x001016e6:    9003        ..      STR      r0,[sp,#0xc]
        0x001016e8:    9803        ..      LDR      r0,[sp,#0xc]
        0x001016ea:    f3c0304e    ..N0    UBFX     r0,r0,#13,#15
        0x001016ee:    9002        ..      STR      r0,[sp,#8]
        0x001016f0:    e7ff        ..      B        0x1016f2 ; SystemInit + 210
        0x001016f2:    9803        ..      LDR      r0,[sp,#0xc]
        0x001016f4:    f3c000c9    ....    UBFX     r0,r0,#3,#10
        0x001016f8:    9001        ..      STR      r0,[sp,#4]
        0x001016fa:    e7ff        ..      B        0x1016fc ; SystemInit + 220
        0x001016fc:    9802        ..      LDR      r0,[sp,#8]
        0x001016fe:    9901        ..      LDR      r1,[sp,#4]
        0x00101700:    0789        ..      LSLS     r1,r1,#30
        0x00101702:    f360114c    `.L.    BFI      r1,r0,#5,#8
        0x00101706:    f64e7060    N.`p    MOV      r0,#0xef60
        0x0010170a:    f2ce0000    ....    MOVT     r0,#0xe000
        0x0010170e:    6001        .`      STR      r1,[r0,#0]
        0x00101710:    9801        ..      LDR      r0,[sp,#4]
        0x00101712:    1e41        A.      SUBS     r1,r0,#1
        0x00101714:    9101        ..      STR      r1,[sp,#4]
        0x00101716:    2800        .(      CMP      r0,#0
        0x00101718:    d1f0        ..      BNE      0x1016fc ; SystemInit + 220
        0x0010171a:    e7ff        ..      B        0x10171c ; SystemInit + 252
        0x0010171c:    9802        ..      LDR      r0,[sp,#8]
        0x0010171e:    1e41        A.      SUBS     r1,r0,#1
        0x00101720:    9102        ..      STR      r1,[sp,#8]
        0x00101722:    2800        .(      CMP      r0,#0
        0x00101724:    d1e5        ..      BNE      0x1016f2 ; SystemInit + 210
        0x00101726:    e7ff        ..      B        0x101728 ; SystemInit + 264
        0x00101728:    f3bf8f4f    ..O.    DSB      
        0x0010172c:    f64e5014    N..P    MOV      r0,#0xed14
        0x00101730:    f2ce0000    ....    MOVT     r0,#0xe000
        0x00101734:    6801        .h      LDR      r1,[r0,#0]
        0x00101736:    f4413180    A..1    ORR      r1,r1,#0x10000
        0x0010173a:    6001        .`      STR      r1,[r0,#0]
        0x0010173c:    f3bf8f4f    ..O.    DSB      
        0x00101740:    f3bf8f6f    ..o.    ISB      
        0x00101744:    e7ff        ..      B        0x101746 ; SystemInit + 294
        0x00101746:    e7ff        ..      B        0x101748 ; SystemInit + 296
        0x00101748:    b004        ..      ADD      sp,sp,#0x10
        0x0010174a:    bd80        ..      POP      {r7,pc}
    bk_no_secure_driver_init
        0x0010174c:    b580        ..      PUSH     {r7,lr}
        0x0010174e:    f000f8bb    ....    BL       no_secure_uart_init ; 0x1018c8
        0x00101752:    bd80        ..      POP      {r7,pc}
    bk_no_secure_printf
        0x00101754:    b083        ..      SUB      sp,sp,#0xc
        0x00101756:    b580        ..      PUSH     {r7,lr}
        0x00101758:    b083        ..      SUB      sp,sp,#0xc
        0x0010175a:    9307        ..      STR      r3,[sp,#0x1c]
        0x0010175c:    9206        ..      STR      r2,[sp,#0x18]
        0x0010175e:    9105        ..      STR      r1,[sp,#0x14]
        0x00101760:    9002        ..      STR      r0,[sp,#8]
        0x00101762:    a805        ..      ADD      r0,sp,#0x14
        0x00101764:    9001        ..      STR      r0,[sp,#4]
        0x00101766:    9a02        ..      LDR      r2,[sp,#8]
        0x00101768:    9b01        ..      LDR      r3,[sp,#4]
        0x0010176a:    f2400080    @...    MOVW     r0,#0x80
        0x0010176e:    f2c20010    ....    MOVT     r0,#0x2010
        0x00101772:    2180        .!      MOVS     r1,#0x80
        0x00101774:    f7fefd98    ....    BL       vsnprintf ; 0x1002a8
        0x00101778:    9000        ..      STR      r0,[sp,#0]
        0x0010177a:    f000f807    ....    BL       bk_no_secure_put_char ; 0x10178c
        0x0010177e:    9800        ..      LDR      r0,[sp,#0]
        0x00101780:    b003        ..      ADD      sp,sp,#0xc
        0x00101782:    e8bd4080    ...@    POP      {r7,lr}
        0x00101786:    b003        ..      ADD      sp,sp,#0xc
        0x00101788:    4770        pG      BX       lr
        0x0010178a:    0000        ..      MOVS     r0,r0
    bk_no_secure_put_char
        0x0010178c:    b081        ..      SUB      sp,sp,#4
        0x0010178e:    f2400080    @...    MOVW     r0,#0x80
        0x00101792:    f2c20010    ....    MOVT     r0,#0x2010
        0x00101796:    9000        ..      STR      r0,[sp,#0]
        0x00101798:    e7ff        ..      B        0x10179a ; bk_no_secure_put_char + 14
        0x0010179a:    9800        ..      LDR      r0,[sp,#0]
        0x0010179c:    7800        .x      LDRB     r0,[r0,#0]
        0x0010179e:    b198        ..      CBZ      r0,0x1017c8 ; bk_no_secure_put_char + 60
        0x001017a0:    e7ff        ..      B        0x1017a2 ; bk_no_secure_put_char + 22
        0x001017a2:    2008        .       MOVS     r0,#8
        0x001017a4:    f2c70020    .. .    MOVT     r0,#0x7020
        0x001017a8:    6800        .h      LDR      r0,[r0,#0]
        0x001017aa:    02c0        ..      LSLS     r0,r0,#11
        0x001017ac:    2800        .(      CMP      r0,#0
        0x001017ae:    d50a        ..      BPL      0x1017c6 ; bk_no_secure_put_char + 58
        0x001017b0:    e7ff        ..      B        0x1017b2 ; bk_no_secure_put_char + 38
        0x001017b2:    9800        ..      LDR      r0,[sp,#0]
        0x001017b4:    7800        .x      LDRB     r0,[r0,#0]
        0x001017b6:    210c        .!      MOVS     r1,#0xc
        0x001017b8:    f2c70120    .. .    MOVT     r1,#0x7020
        0x001017bc:    6008        .`      STR      r0,[r1,#0]
        0x001017be:    9800        ..      LDR      r0,[sp,#0]
        0x001017c0:    3001        .0      ADDS     r0,#1
        0x001017c2:    9000        ..      STR      r0,[sp,#0]
        0x001017c4:    e7ff        ..      B        0x1017c6 ; bk_no_secure_put_char + 58
        0x001017c6:    e7e8        ..      B        0x10179a ; bk_no_secure_put_char + 14
        0x001017c8:    b001        ..      ADD      sp,sp,#4
        0x001017ca:    4770        pG      BX       lr
    demo_start
        0x001017cc:    b580        ..      PUSH     {r7,lr}
        0x001017ce:    b084        ..      SUB      sp,sp,#0x10
        0x001017d0:    2000        .       MOVS     r0,#0
        0x001017d2:    9003        ..      STR      r0,[sp,#0xc]
        0x001017d4:    9002        ..      STR      r0,[sp,#8]
        0x001017d6:    9001        ..      STR      r0,[sp,#4]
        0x001017d8:    f64400a7    D...    MOV      r0,#0x48a7
        0x001017dc:    f2c00010    ....    MOVT     r0,#0x10
        0x001017e0:    f7ffffb8    ....    BL       bk_no_secure_printf ; 0x101754
        0x001017e4:    f6421005    B...    MOV      r0,#0x2905
        0x001017e8:    f2c00010    ....    MOVT     r0,#0x10
        0x001017ec:    f6442112    D..!    MOV      r1,#0x4a12
        0x001017f0:    f2c00110    ....    MOVT     r1,#0x10
        0x001017f4:    ab02        ..      ADD      r3,sp,#8
        0x001017f6:    2206        ."      MOVS     r2,#6
        0x001017f8:    f001ff7e    ..~.    BL       xTaskCreate ; 0x1036f8
        0x001017fc:    9003        ..      STR      r0,[sp,#0xc]
        0x001017fe:    9803        ..      LDR      r0,[sp,#0xc]
        0x00101800:    2801        .(      CMP      r0,#1
        0x00101802:    d007        ..      BEQ      0x101814 ; demo_start + 72
        0x00101804:    e7ff        ..      B        0x101806 ; demo_start + 58
        0x00101806:    f64400d6    D...    MOV      r0,#0x48d6
        0x0010180a:    f2c00010    ....    MOVT     r0,#0x10
        0x0010180e:    f7ffffa1    ....    BL       bk_no_secure_printf ; 0x101754
        0x00101812:    e018        ..      B        0x101846 ; demo_start + 122
        0x00101814:    f6421059    B.Y.    MOV      r0,#0x2959
        0x00101818:    f2c00010    ....    MOVT     r0,#0x10
        0x0010181c:    f644211a    D..!    MOV      r1,#0x4a1a
        0x00101820:    f2c00110    ....    MOVT     r1,#0x10
        0x00101824:    ab01        ..      ADD      r3,sp,#4
        0x00101826:    2206        ."      MOVS     r2,#6
        0x00101828:    f001ff66    ..f.    BL       xTaskCreate ; 0x1036f8
        0x0010182c:    9003        ..      STR      r0,[sp,#0xc]
        0x0010182e:    9803        ..      LDR      r0,[sp,#0xc]
        0x00101830:    2801        .(      CMP      r0,#1
        0x00101832:    d007        ..      BEQ      0x101844 ; demo_start + 120
        0x00101834:    e7ff        ..      B        0x101836 ; demo_start + 106
        0x00101836:    f64400fd    D...    MOV      r0,#0x48fd
        0x0010183a:    f2c00010    ....    MOVT     r0,#0x10
        0x0010183e:    f7ffff89    ....    BL       bk_no_secure_printf ; 0x101754
        0x00101842:    e000        ..      B        0x101846 ; demo_start + 122
        0x00101844:    e7ff        ..      B        0x101846 ; demo_start + 122
        0x00101846:    9803        ..      LDR      r0,[sp,#0xc]
        0x00101848:    2801        .(      CMP      r0,#1
        0x0010184a:    d016        ..      BEQ      0x10187a ; demo_start + 174
        0x0010184c:    e7ff        ..      B        0x10184e ; demo_start + 130
        0x0010184e:    9903        ..      LDR      r1,[sp,#0xc]
        0x00101850:    f6442030    D.0     MOV      r0,#0x4a30
        0x00101854:    f2c00010    ....    MOVT     r0,#0x10
        0x00101858:    f7ffff7c    ..|.    BL       bk_no_secure_printf ; 0x101754
        0x0010185c:    9802        ..      LDR      r0,[sp,#8]
        0x0010185e:    b120         .      CBZ      r0,0x10186a ; demo_start + 158
        0x00101860:    e7ff        ..      B        0x101862 ; demo_start + 150
        0x00101862:    9802        ..      LDR      r0,[sp,#8]
        0x00101864:    f001fb76    ..v.    BL       vTaskDelete ; 0x102f54
        0x00101868:    e7ff        ..      B        0x10186a ; demo_start + 158
        0x0010186a:    9801        ..      LDR      r0,[sp,#4]
        0x0010186c:    b120         .      CBZ      r0,0x101878 ; demo_start + 172
        0x0010186e:    e7ff        ..      B        0x101870 ; demo_start + 164
        0x00101870:    9801        ..      LDR      r0,[sp,#4]
        0x00101872:    f001fb6f    ..o.    BL       vTaskDelete ; 0x102f54
        0x00101876:    e7ff        ..      B        0x101878 ; demo_start + 172
        0x00101878:    e7ff        ..      B        0x10187a ; demo_start + 174
        0x0010187a:    9803        ..      LDR      r0,[sp,#0xc]
        0x0010187c:    b004        ..      ADD      sp,sp,#0x10
        0x0010187e:    bd80        ..      POP      {r7,pc}
    main
        0x00101880:    b082        ..      SUB      sp,sp,#8
        0x00101882:    2000        .       MOVS     r0,#0
        0x00101884:    9001        ..      STR      r0,[sp,#4]
        0x00101886:    f7ffff61    ..a.    BL       bk_no_secure_driver_init ; 0x10174c
        0x0010188a:    f64410e4    D...    MOV      r0,#0x49e4
        0x0010188e:    f2c00010    ....    MOVT     r0,#0x10
        0x00101892:    f7ffff5f    .._.    BL       bk_no_secure_printf ; 0x101754
        0x00101896:    f64410d4    D...    MOV      r0,#0x49d4
        0x0010189a:    f2c00010    ....    MOVT     r0,#0x10
        0x0010189e:    f7ffff59    ..Y.    BL       bk_no_secure_printf ; 0x101754
        0x001018a2:    f000f9df    ....    BL       prvCreateTasks ; 0x101c64
        0x001018a6:    f64410bf    D...    MOV      r0,#0x49bf
        0x001018aa:    f2c00010    ....    MOVT     r0,#0x10
        0x001018ae:    f7ffff51    ..Q.    BL       bk_no_secure_printf ; 0x101754
        0x001018b2:    f001fc35    ..5.    BL       vTaskStartScheduler ; 0x103120
        0x001018b6:    e7ff        ..      B        0x1018b8 ; main + 56
        0x001018b8:    f6442008    D..     MOV      r0,#0x4a08
        0x001018bc:    f2c00010    ....    MOVT     r0,#0x10
        0x001018c0:    f7ffff48    ..H.    BL       bk_no_secure_printf ; 0x101754
        0x001018c4:    e7f8        ..      B        0x1018b8 ; main + 56
        0x001018c6:    0000        ..      MOVS     r0,r0
    no_secure_uart_init
        0x001018c8:    b083        ..      SUB      sp,sp,#0xc
        0x001018ca:    f44f30e1    O..0    MOV      r0,#0x1c200
        0x001018ce:    9002        ..      STR      r0,[sp,#8]
        0x001018d0:    2010        .       MOVS     r0,#0x10
        0x001018d2:    f88d0007    ....    STRB     r0,[sp,#7]
        0x001018d6:    9802        ..      LDR      r0,[sp,#8]
        0x001018d8:    f6470140    G.@.    MOV      r1,#0x7840
        0x001018dc:    f2c0117d    ..}.    MOVT     r1,#0x17d
        0x001018e0:    fbb1f0f0    ....    UDIV     r0,r1,r0
        0x001018e4:    9000        ..      STR      r0,[sp,#0]
        0x001018e6:    9800        ..      LDR      r0,[sp,#0]
        0x001018e8:    3801        .8      SUBS     r0,#1
        0x001018ea:    9000        ..      STR      r0,[sp,#0]
        0x001018ec:    2000        .       MOVS     r0,#0
        0x001018ee:    f2c70020    .. .    MOVT     r0,#0x7020
        0x001018f2:    2100        .!      MOVS     r1,#0
        0x001018f4:    6001        .`      STR      r1,[r0,#0]
        0x001018f6:    2204        ."      MOVS     r2,#4
        0x001018f8:    f2c70220    .. .    MOVT     r2,#0x7020
        0x001018fc:    6011        .`      STR      r1,[r2,#0]
        0x001018fe:    9b00        ..      LDR      r3,[sp,#0]
        0x00101900:    021b        ..      LSLS     r3,r3,#8
        0x00101902:    339b        .3      ADDS     r3,r3,#0x9b
        0x00101904:    6003        .`      STR      r3,[r0,#0]
        0x00101906:    f89d0007    ....    LDRB     r0,[sp,#7]
        0x0010190a:    0200        ..      LSLS     r0,r0,#8
        0x0010190c:    3040        @0      ADDS     r0,r0,#0x40
        0x0010190e:    6010        .`      STR      r0,[r2,#0]
        0x00101910:    2010        .       MOVS     r0,#0x10
        0x00101912:    f2c70020    .. .    MOVT     r0,#0x7020
        0x00101916:    6001        .`      STR      r1,[r0,#0]
        0x00101918:    b003        ..      ADD      sp,sp,#0xc
        0x0010191a:    4770        pG      BX       lr
    prvAddCurrentTaskToDelayedList
        0x0010191c:    b580        ..      PUSH     {r7,lr}
        0x0010191e:    b086        ..      SUB      sp,sp,#0x18
        0x00101920:    9005        ..      STR      r0,[sp,#0x14]
        0x00101922:    9104        ..      STR      r1,[sp,#0x10]
        0x00101924:    f2402058    @.X     MOVW     r0,#0x258
        0x00101928:    f2c20010    ....    MOVT     r0,#0x2010
        0x0010192c:    6800        .h      LDR      r0,[r0,#0]
        0x0010192e:    9002        ..      STR      r0,[sp,#8]
        0x00101930:    f2401000    @...    MOVW     r0,#0x100
        0x00101934:    f2c20010    ....    MOVT     r0,#0x2010
        0x00101938:    6800        .h      LDR      r0,[r0,#0]
        0x0010193a:    3004        .0      ADDS     r0,#4
        0x0010193c:    f001f82e    ....    BL       uxListRemove ; 0x10299c
        0x00101940:    b908        ..      CBNZ     r0,0x101946 ; prvAddCurrentTaskToDelayedList + 42
        0x00101942:    e7ff        ..      B        0x101944 ; prvAddCurrentTaskToDelayedList + 40
        0x00101944:    e000        ..      B        0x101948 ; prvAddCurrentTaskToDelayedList + 44
        0x00101946:    e7ff        ..      B        0x101948 ; prvAddCurrentTaskToDelayedList + 44
        0x00101948:    9805        ..      LDR      r0,[sp,#0x14]
        0x0010194a:    3001        .0      ADDS     r0,#1
        0x0010194c:    bb18        ..      CBNZ     r0,0x101996 ; prvAddCurrentTaskToDelayedList + 122
        0x0010194e:    e7ff        ..      B        0x101950 ; prvAddCurrentTaskToDelayedList + 52
        0x00101950:    9804        ..      LDR      r0,[sp,#0x10]
        0x00101952:    b300        ..      CBZ      r0,0x101996 ; prvAddCurrentTaskToDelayedList + 122
        0x00101954:    e7ff        ..      B        0x101956 ; prvAddCurrentTaskToDelayedList + 58
        0x00101956:    f2402034    @.4     MOVW     r0,#0x234
        0x0010195a:    f2c20010    ....    MOVT     r0,#0x2010
        0x0010195e:    6841        Ah      LDR      r1,[r0,#4]
        0x00101960:    9101        ..      STR      r1,[sp,#4]
        0x00101962:    9901        ..      LDR      r1,[sp,#4]
        0x00101964:    f2401200    @...    MOVW     r2,#0x100
        0x00101968:    f2c20210    ....    MOVT     r2,#0x2010
        0x0010196c:    6813        .h      LDR      r3,[r2,#0]
        0x0010196e:    6099        .`      STR      r1,[r3,#8]
        0x00101970:    9901        ..      LDR      r1,[sp,#4]
        0x00101972:    6889        .h      LDR      r1,[r1,#8]
        0x00101974:    6813        .h      LDR      r3,[r2,#0]
        0x00101976:    60d9        .`      STR      r1,[r3,#0xc]
        0x00101978:    6811        .h      LDR      r1,[r2,#0]
        0x0010197a:    3104        .1      ADDS     r1,#4
        0x0010197c:    9b01        ..      LDR      r3,[sp,#4]
        0x0010197e:    689b        .h      LDR      r3,[r3,#8]
        0x00101980:    6059        Y`      STR      r1,[r3,#4]
        0x00101982:    6811        .h      LDR      r1,[r2,#0]
        0x00101984:    3104        .1      ADDS     r1,#4
        0x00101986:    9b01        ..      LDR      r3,[sp,#4]
        0x00101988:    6099        .`      STR      r1,[r3,#8]
        0x0010198a:    6811        .h      LDR      r1,[r2,#0]
        0x0010198c:    6148        Ha      STR      r0,[r1,#0x14]
        0x0010198e:    6801        .h      LDR      r1,[r0,#0]
        0x00101990:    3101        .1      ADDS     r1,#1
        0x00101992:    6001        .`      STR      r1,[r0,#0]
        0x00101994:    e03d        =.      B        0x101a12 ; prvAddCurrentTaskToDelayedList + 246
        0x00101996:    9802        ..      LDR      r0,[sp,#8]
        0x00101998:    9905        ..      LDR      r1,[sp,#0x14]
        0x0010199a:    4408        .D      ADD      r0,r0,r1
        0x0010199c:    9003        ..      STR      r0,[sp,#0xc]
        0x0010199e:    9803        ..      LDR      r0,[sp,#0xc]
        0x001019a0:    f2401100    @...    MOVW     r1,#0x100
        0x001019a4:    f2c20110    ....    MOVT     r1,#0x2010
        0x001019a8:    6809        .h      LDR      r1,[r1,#0]
        0x001019aa:    6048        H`      STR      r0,[r1,#4]
        0x001019ac:    9803        ..      LDR      r0,[sp,#0xc]
        0x001019ae:    9902        ..      LDR      r1,[sp,#8]
        0x001019b0:    4288        .B      CMP      r0,r1
        0x001019b2:    d20e        ..      BCS      0x1019d2 ; prvAddCurrentTaskToDelayedList + 182
        0x001019b4:    e7ff        ..      B        0x1019b6 ; prvAddCurrentTaskToDelayedList + 154
        0x001019b6:    f240204c    @.L     MOVW     r0,#0x24c
        0x001019ba:    f2c20010    ....    MOVT     r0,#0x2010
        0x001019be:    6800        .h      LDR      r0,[r0,#0]
        0x001019c0:    f2401100    @...    MOVW     r1,#0x100
        0x001019c4:    f2c20110    ....    MOVT     r1,#0x2010
        0x001019c8:    6809        .h      LDR      r1,[r1,#0]
        0x001019ca:    3104        .1      ADDS     r1,#4
        0x001019cc:    f001f8ce    ....    BL       vListInsert ; 0x102b6c
        0x001019d0:    e01e        ..      B        0x101a10 ; prvAddCurrentTaskToDelayedList + 244
        0x001019d2:    f2402048    @.H     MOVW     r0,#0x248
        0x001019d6:    f2c20010    ....    MOVT     r0,#0x2010
        0x001019da:    6800        .h      LDR      r0,[r0,#0]
        0x001019dc:    f2401100    @...    MOVW     r1,#0x100
        0x001019e0:    f2c20110    ....    MOVT     r1,#0x2010
        0x001019e4:    6809        .h      LDR      r1,[r1,#0]
        0x001019e6:    3104        .1      ADDS     r1,#4
        0x001019e8:    f001f8c0    ....    BL       vListInsert ; 0x102b6c
        0x001019ec:    9803        ..      LDR      r0,[sp,#0xc]
        0x001019ee:    f2402154    @.T!    MOVW     r1,#0x254
        0x001019f2:    f2c20110    ....    MOVT     r1,#0x2010
        0x001019f6:    6809        .h      LDR      r1,[r1,#0]
        0x001019f8:    4288        .B      CMP      r0,r1
        0x001019fa:    d207        ..      BCS      0x101a0c ; prvAddCurrentTaskToDelayedList + 240
        0x001019fc:    e7ff        ..      B        0x1019fe ; prvAddCurrentTaskToDelayedList + 226
        0x001019fe:    9803        ..      LDR      r0,[sp,#0xc]
        0x00101a00:    f2402154    @.T!    MOVW     r1,#0x254
        0x00101a04:    f2c20110    ....    MOVT     r1,#0x2010
        0x00101a08:    6008        .`      STR      r0,[r1,#0]
        0x00101a0a:    e000        ..      B        0x101a0e ; prvAddCurrentTaskToDelayedList + 242
        0x00101a0c:    e7ff        ..      B        0x101a0e ; prvAddCurrentTaskToDelayedList + 242
        0x00101a0e:    e7ff        ..      B        0x101a10 ; prvAddCurrentTaskToDelayedList + 244
        0x00101a10:    e7ff        ..      B        0x101a12 ; prvAddCurrentTaskToDelayedList + 246
        0x00101a12:    b006        ..      ADD      sp,sp,#0x18
        0x00101a14:    bd80        ..      POP      {r7,pc}
        0x00101a16:    0000        ..      MOVS     r0,r0
    prvAddNewTaskToReadyList
        0x00101a18:    b580        ..      PUSH     {r7,lr}
        0x00101a1a:    b082        ..      SUB      sp,sp,#8
        0x00101a1c:    9001        ..      STR      r0,[sp,#4]
        0x00101a1e:    f001f8fd    ....    BL       vPortEnterCritical ; 0x102c1c
        0x00101a22:    f24010d8    @...    MOVW     r0,#0x1d8
        0x00101a26:    f2c20010    ....    MOVT     r0,#0x2010
        0x00101a2a:    6801        .h      LDR      r1,[r0,#0]
        0x00101a2c:    3101        .1      ADDS     r1,#1
        0x00101a2e:    6001        .`      STR      r1,[r0,#0]
        0x00101a30:    f2401000    @...    MOVW     r0,#0x100
        0x00101a34:    f2c20010    ....    MOVT     r0,#0x2010
        0x00101a38:    6800        .h      LDR      r0,[r0,#0]
        0x00101a3a:    b998        ..      CBNZ     r0,0x101a64 ; prvAddNewTaskToReadyList + 76
        0x00101a3c:    e7ff        ..      B        0x101a3e ; prvAddNewTaskToReadyList + 38
        0x00101a3e:    9801        ..      LDR      r0,[sp,#4]
        0x00101a40:    f2401100    @...    MOVW     r1,#0x100
        0x00101a44:    f2c20110    ....    MOVT     r1,#0x2010
        0x00101a48:    6008        .`      STR      r0,[r1,#0]
        0x00101a4a:    f24010d8    @...    MOVW     r0,#0x1d8
        0x00101a4e:    f2c20010    ....    MOVT     r0,#0x2010
        0x00101a52:    6800        .h      LDR      r0,[r0,#0]
        0x00101a54:    2801        .(      CMP      r0,#1
        0x00101a56:    d103        ..      BNE      0x101a60 ; prvAddNewTaskToReadyList + 72
        0x00101a58:    e7ff        ..      B        0x101a5a ; prvAddNewTaskToReadyList + 66
        0x00101a5a:    f000fa81    ....    BL       prvInitialiseTaskLists ; 0x101f60
        0x00101a5e:    e000        ..      B        0x101a62 ; prvAddNewTaskToReadyList + 74
        0x00101a60:    e7ff        ..      B        0x101a62 ; prvAddNewTaskToReadyList + 74
        0x00101a62:    e01c        ..      B        0x101a9e ; prvAddNewTaskToReadyList + 134
        0x00101a64:    f24010dc    @...    MOVW     r0,#0x1dc
        0x00101a68:    f2c20010    ....    MOVT     r0,#0x2010
        0x00101a6c:    6800        .h      LDR      r0,[r0,#0]
        0x00101a6e:    b9a0        ..      CBNZ     r0,0x101a9a ; prvAddNewTaskToReadyList + 130
        0x00101a70:    e7ff        ..      B        0x101a72 ; prvAddNewTaskToReadyList + 90
        0x00101a72:    f2401000    @...    MOVW     r0,#0x100
        0x00101a76:    f2c20010    ....    MOVT     r0,#0x2010
        0x00101a7a:    6800        .h      LDR      r0,[r0,#0]
        0x00101a7c:    6ac0        .j      LDR      r0,[r0,#0x2c]
        0x00101a7e:    9901        ..      LDR      r1,[sp,#4]
        0x00101a80:    6ac9        .j      LDR      r1,[r1,#0x2c]
        0x00101a82:    4288        .B      CMP      r0,r1
        0x00101a84:    d807        ..      BHI      0x101a96 ; prvAddNewTaskToReadyList + 126
        0x00101a86:    e7ff        ..      B        0x101a88 ; prvAddNewTaskToReadyList + 112
        0x00101a88:    9801        ..      LDR      r0,[sp,#4]
        0x00101a8a:    f2401100    @...    MOVW     r1,#0x100
        0x00101a8e:    f2c20110    ....    MOVT     r1,#0x2010
        0x00101a92:    6008        .`      STR      r0,[r1,#0]
        0x00101a94:    e000        ..      B        0x101a98 ; prvAddNewTaskToReadyList + 128
        0x00101a96:    e7ff        ..      B        0x101a98 ; prvAddNewTaskToReadyList + 128
        0x00101a98:    e000        ..      B        0x101a9c ; prvAddNewTaskToReadyList + 132
        0x00101a9a:    e7ff        ..      B        0x101a9c ; prvAddNewTaskToReadyList + 132
        0x00101a9c:    e7ff        ..      B        0x101a9e ; prvAddNewTaskToReadyList + 134
        0x00101a9e:    f24010e0    @...    MOVW     r0,#0x1e0
        0x00101aa2:    f2c20010    ....    MOVT     r0,#0x2010
        0x00101aa6:    6801        .h      LDR      r1,[r0,#0]
        0x00101aa8:    3101        .1      ADDS     r1,#1
        0x00101aaa:    6001        .`      STR      r1,[r0,#0]
        0x00101aac:    6800        .h      LDR      r0,[r0,#0]
        0x00101aae:    9901        ..      LDR      r1,[sp,#4]
        0x00101ab0:    6408        .d      STR      r0,[r1,#0x40]
        0x00101ab2:    9801        ..      LDR      r0,[sp,#4]
        0x00101ab4:    6ac0        .j      LDR      r0,[r0,#0x2c]
        0x00101ab6:    f240110c    @...    MOVW     r1,#0x10c
        0x00101aba:    f2c20110    ....    MOVT     r1,#0x2010
        0x00101abe:    6809        .h      LDR      r1,[r1,#0]
        0x00101ac0:    4288        .B      CMP      r0,r1
        0x00101ac2:    d908        ..      BLS      0x101ad6 ; prvAddNewTaskToReadyList + 190
        0x00101ac4:    e7ff        ..      B        0x101ac6 ; prvAddNewTaskToReadyList + 174
        0x00101ac6:    9801        ..      LDR      r0,[sp,#4]
        0x00101ac8:    6ac0        .j      LDR      r0,[r0,#0x2c]
        0x00101aca:    f240110c    @...    MOVW     r1,#0x10c
        0x00101ace:    f2c20110    ....    MOVT     r1,#0x2010
        0x00101ad2:    6008        .`      STR      r0,[r1,#0]
        0x00101ad4:    e7ff        ..      B        0x101ad6 ; prvAddNewTaskToReadyList + 190
        0x00101ad6:    9801        ..      LDR      r0,[sp,#4]
        0x00101ad8:    6ac0        .j      LDR      r0,[r0,#0x2c]
        0x00101ada:    eb000180    ....    ADD      r1,r0,r0,LSL #2
        0x00101ade:    f2401010    @...    MOVW     r0,#0x110
        0x00101ae2:    f2c20010    ....    MOVT     r0,#0x2010
        0x00101ae6:    eb000181    ....    ADD      r1,r0,r1,LSL #2
        0x00101aea:    6849        Ih      LDR      r1,[r1,#4]
        0x00101aec:    9100        ..      STR      r1,[sp,#0]
        0x00101aee:    9900        ..      LDR      r1,[sp,#0]
        0x00101af0:    9a01        ..      LDR      r2,[sp,#4]
        0x00101af2:    6091        .`      STR      r1,[r2,#8]
        0x00101af4:    9900        ..      LDR      r1,[sp,#0]
        0x00101af6:    6889        .h      LDR      r1,[r1,#8]
        0x00101af8:    9a01        ..      LDR      r2,[sp,#4]
        0x00101afa:    60d1        .`      STR      r1,[r2,#0xc]
        0x00101afc:    9901        ..      LDR      r1,[sp,#4]
        0x00101afe:    3104        .1      ADDS     r1,#4
        0x00101b00:    9a00        ..      LDR      r2,[sp,#0]
        0x00101b02:    6892        .h      LDR      r2,[r2,#8]
        0x00101b04:    6051        Q`      STR      r1,[r2,#4]
        0x00101b06:    9901        ..      LDR      r1,[sp,#4]
        0x00101b08:    3104        .1      ADDS     r1,#4
        0x00101b0a:    9a00        ..      LDR      r2,[sp,#0]
        0x00101b0c:    6091        .`      STR      r1,[r2,#8]
        0x00101b0e:    9901        ..      LDR      r1,[sp,#4]
        0x00101b10:    6aca        .j      LDR      r2,[r1,#0x2c]
        0x00101b12:    eb020282    ....    ADD      r2,r2,r2,LSL #2
        0x00101b16:    eb000282    ....    ADD      r2,r0,r2,LSL #2
        0x00101b1a:    614a        Ja      STR      r2,[r1,#0x14]
        0x00101b1c:    9901        ..      LDR      r1,[sp,#4]
        0x00101b1e:    6ac9        .j      LDR      r1,[r1,#0x2c]
        0x00101b20:    eb010181    ....    ADD      r1,r1,r1,LSL #2
        0x00101b24:    f8502021    P.!     LDR      r2,[r0,r1,LSL #2]
        0x00101b28:    3201        .2      ADDS     r2,#1
        0x00101b2a:    f8402021    @.!     STR      r2,[r0,r1,LSL #2]
        0x00101b2e:    f001f885    ....    BL       vPortExitCritical ; 0x102c3c
        0x00101b32:    f24010dc    @...    MOVW     r0,#0x1dc
        0x00101b36:    f2c20010    ....    MOVT     r0,#0x2010
        0x00101b3a:    6800        .h      LDR      r0,[r0,#0]
        0x00101b3c:    b180        ..      CBZ      r0,0x101b60 ; prvAddNewTaskToReadyList + 328
        0x00101b3e:    e7ff        ..      B        0x101b40 ; prvAddNewTaskToReadyList + 296
        0x00101b40:    f2401000    @...    MOVW     r0,#0x100
        0x00101b44:    f2c20010    ....    MOVT     r0,#0x2010
        0x00101b48:    6800        .h      LDR      r0,[r0,#0]
        0x00101b4a:    6ac0        .j      LDR      r0,[r0,#0x2c]
        0x00101b4c:    9901        ..      LDR      r1,[sp,#4]
        0x00101b4e:    6ac9        .j      LDR      r1,[r1,#0x2c]
        0x00101b50:    4288        .B      CMP      r0,r1
        0x00101b52:    d203        ..      BCS      0x101b5c ; prvAddNewTaskToReadyList + 324
        0x00101b54:    e7ff        ..      B        0x101b56 ; prvAddNewTaskToReadyList + 318
        0x00101b56:    f001f965    ..e.    BL       vPortYield ; 0x102e24
        0x00101b5a:    e000        ..      B        0x101b5e ; prvAddNewTaskToReadyList + 326
        0x00101b5c:    e7ff        ..      B        0x101b5e ; prvAddNewTaskToReadyList + 326
        0x00101b5e:    e000        ..      B        0x101b62 ; prvAddNewTaskToReadyList + 330
        0x00101b60:    e7ff        ..      B        0x101b62 ; prvAddNewTaskToReadyList + 330
        0x00101b62:    b002        ..      ADD      sp,sp,#8
        0x00101b64:    bd80        ..      POP      {r7,pc}
        0x00101b66:    0000        ..      MOVS     r0,r0
    prvCheckForValidListAndQueue
        0x00101b68:    b5b0        ..      PUSH     {r4,r5,r7,lr}
        0x00101b6a:    f001f857    ..W.    BL       vPortEnterCritical ; 0x102c1c
        0x00101b6e:    f2402068    @.h     MOVW     r0,#0x268
        0x00101b72:    f2c20010    ....    MOVT     r0,#0x2010
        0x00101b76:    6800        .h      LDR      r0,[r0,#0]
        0x00101b78:    bb00        ..      CBNZ     r0,0x101bbc ; prvCheckForValidListAndQueue + 84
        0x00101b7a:    e7ff        ..      B        0x101b7c ; prvCheckForValidListAndQueue + 20
        0x00101b7c:    f240247c    @.|$    MOVW     r4,#0x27c
        0x00101b80:    f2c20410    ....    MOVT     r4,#0x2010
        0x00101b84:    4620         F      MOV      r0,r4
        0x00101b86:    f000ffd1    ....    BL       vListInitialise ; 0x102b2c
        0x00101b8a:    f2402590    @..%    MOVW     r5,#0x290
        0x00101b8e:    f2c20510    ....    MOVT     r5,#0x2010
        0x00101b92:    4628        (F      MOV      r0,r5
        0x00101b94:    f000ffca    ....    BL       vListInitialise ; 0x102b2c
        0x00101b98:    f2402074    @.t     MOVW     r0,#0x274
        0x00101b9c:    f2c20010    ....    MOVT     r0,#0x2010
        0x00101ba0:    6004        .`      STR      r4,[r0,#0]
        0x00101ba2:    f2402070    @.p     MOVW     r0,#0x270
        0x00101ba6:    f2c20010    ....    MOVT     r0,#0x2010
        0x00101baa:    6005        .`      STR      r5,[r0,#0]
        0x00101bac:    f001fbc6    ....    BL       xQueueGenericCreateStatic ; 0x10333c
        0x00101bb0:    f2402168    @.h!    MOVW     r1,#0x268
        0x00101bb4:    f2c20110    ....    MOVT     r1,#0x2010
        0x00101bb8:    6008        .`      STR      r0,[r1,#0]
        0x00101bba:    e000        ..      B        0x101bbe ; prvCheckForValidListAndQueue + 86
        0x00101bbc:    e7ff        ..      B        0x101bbe ; prvCheckForValidListAndQueue + 86
        0x00101bbe:    f001f83d    ..=.    BL       vPortExitCritical ; 0x102c3c
        0x00101bc2:    bdb0        ..      POP      {r4,r5,r7,pc}
    prvCheckTasksWaitingTermination
        0x00101bc4:    b580        ..      PUSH     {r7,lr}
        0x00101bc6:    b082        ..      SUB      sp,sp,#8
        0x00101bc8:    e7ff        ..      B        0x101bca ; prvCheckTasksWaitingTermination + 6
        0x00101bca:    f2402050    @.P     MOVW     r0,#0x250
        0x00101bce:    f2c20010    ....    MOVT     r0,#0x2010
        0x00101bd2:    6800        .h      LDR      r0,[r0,#0]
        0x00101bd4:    b308        ..      CBZ      r0,0x101c1a ; prvCheckTasksWaitingTermination + 86
        0x00101bd6:    e7ff        ..      B        0x101bd8 ; prvCheckTasksWaitingTermination + 20
        0x00101bd8:    f001f820    .. .    BL       vPortEnterCritical ; 0x102c1c
        0x00101bdc:    f2402020    @.      MOVW     r0,#0x220
        0x00101be0:    f2c20010    ....    MOVT     r0,#0x2010
        0x00101be4:    68c0        .h      LDR      r0,[r0,#0xc]
        0x00101be6:    68c0        .h      LDR      r0,[r0,#0xc]
        0x00101be8:    9001        ..      STR      r0,[sp,#4]
        0x00101bea:    9801        ..      LDR      r0,[sp,#4]
        0x00101bec:    3004        .0      ADDS     r0,#4
        0x00101bee:    f000fed5    ....    BL       uxListRemove ; 0x10299c
        0x00101bf2:    f24010d8    @...    MOVW     r0,#0x1d8
        0x00101bf6:    f2c20010    ....    MOVT     r0,#0x2010
        0x00101bfa:    6801        .h      LDR      r1,[r0,#0]
        0x00101bfc:    3901        .9      SUBS     r1,#1
        0x00101bfe:    6001        .`      STR      r1,[r0,#0]
        0x00101c00:    f2402050    @.P     MOVW     r0,#0x250
        0x00101c04:    f2c20010    ....    MOVT     r0,#0x2010
        0x00101c08:    6801        .h      LDR      r1,[r0,#0]
        0x00101c0a:    3901        .9      SUBS     r1,#1
        0x00101c0c:    6001        .`      STR      r1,[r0,#0]
        0x00101c0e:    f001f815    ....    BL       vPortExitCritical ; 0x102c3c
        0x00101c12:    9801        ..      LDR      r0,[sp,#4]
        0x00101c14:    f000f82a    ..*.    BL       prvDeleteTCB ; 0x101c6c
        0x00101c18:    e7d7        ..      B        0x101bca ; prvCheckTasksWaitingTermination + 6
        0x00101c1a:    b002        ..      ADD      sp,sp,#8
        0x00101c1c:    bd80        ..      POP      {r7,pc}
        0x00101c1e:    0000        ..      MOVS     r0,r0
    prvCopyDataFromQueue
        0x00101c20:    b580        ..      PUSH     {r7,lr}
        0x00101c22:    b082        ..      SUB      sp,sp,#8
        0x00101c24:    9001        ..      STR      r0,[sp,#4]
        0x00101c26:    9100        ..      STR      r1,[sp,#0]
        0x00101c28:    9801        ..      LDR      r0,[sp,#4]
        0x00101c2a:    6c00        .l      LDR      r0,[r0,#0x40]
        0x00101c2c:    b1b8        ..      CBZ      r0,0x101c5e ; prvCopyDataFromQueue + 62
        0x00101c2e:    e7ff        ..      B        0x101c30 ; prvCopyDataFromQueue + 16
        0x00101c30:    9801        ..      LDR      r0,[sp,#4]
        0x00101c32:    68c1        .h      LDR      r1,[r0,#0xc]
        0x00101c34:    6c02        .l      LDR      r2,[r0,#0x40]
        0x00101c36:    4411        .D      ADD      r1,r1,r2
        0x00101c38:    60c1        .`      STR      r1,[r0,#0xc]
        0x00101c3a:    9801        ..      LDR      r0,[sp,#4]
        0x00101c3c:    6881        .h      LDR      r1,[r0,#8]
        0x00101c3e:    68c0        .h      LDR      r0,[r0,#0xc]
        0x00101c40:    4288        .B      CMP      r0,r1
        0x00101c42:    d304        ..      BCC      0x101c4e ; prvCopyDataFromQueue + 46
        0x00101c44:    e7ff        ..      B        0x101c46 ; prvCopyDataFromQueue + 38
        0x00101c46:    9801        ..      LDR      r0,[sp,#4]
        0x00101c48:    6801        .h      LDR      r1,[r0,#0]
        0x00101c4a:    60c1        .`      STR      r1,[r0,#0xc]
        0x00101c4c:    e000        ..      B        0x101c50 ; prvCopyDataFromQueue + 48
        0x00101c4e:    e7ff        ..      B        0x101c50 ; prvCopyDataFromQueue + 48
        0x00101c50:    9800        ..      LDR      r0,[sp,#0]
        0x00101c52:    9a01        ..      LDR      r2,[sp,#4]
        0x00101c54:    68d1        .h      LDR      r1,[r2,#0xc]
        0x00101c56:    6c12        .l      LDR      r2,[r2,#0x40]
        0x00101c58:    f7fffc08    ....    BL       __aeabi_memcpy ; 0x10146c
        0x00101c5c:    e7ff        ..      B        0x101c5e ; prvCopyDataFromQueue + 62
        0x00101c5e:    b002        ..      ADD      sp,sp,#8
        0x00101c60:    bd80        ..      POP      {r7,pc}
        0x00101c62:    0000        ..      MOVS     r0,r0
    prvCreateTasks
        0x00101c64:    b580        ..      PUSH     {r7,lr}
        0x00101c66:    f7fffdb1    ....    BL       demo_start ; 0x1017cc
        0x00101c6a:    bd80        ..      POP      {r7,pc}
    prvDeleteTCB
        0x00101c6c:    b580        ..      PUSH     {r7,lr}
        0x00101c6e:    b082        ..      SUB      sp,sp,#8
        0x00101c70:    9001        ..      STR      r0,[sp,#4]
        0x00101c72:    9801        ..      LDR      r0,[sp,#4]
        0x00101c74:    f001f864    ..d.    BL       vPortFreeSecureContext ; 0x102d40
        0x00101c78:    9801        ..      LDR      r0,[sp,#4]
        0x00101c7a:    f8900055    ..U.    LDRB     r0,[r0,#0x55]
        0x00101c7e:    b940        @.      CBNZ     r0,0x101c92 ; prvDeleteTCB + 38
        0x00101c80:    e7ff        ..      B        0x101c82 ; prvDeleteTCB + 22
        0x00101c82:    9801        ..      LDR      r0,[sp,#4]
        0x00101c84:    6b00        .k      LDR      r0,[r0,#0x30]
        0x00101c86:    f000fff5    ....    BL       vPortFree ; 0x102c74
        0x00101c8a:    9801        ..      LDR      r0,[sp,#4]
        0x00101c8c:    f000fff2    ....    BL       vPortFree ; 0x102c74
        0x00101c90:    e015        ..      B        0x101cbe ; prvDeleteTCB + 82
        0x00101c92:    9801        ..      LDR      r0,[sp,#4]
        0x00101c94:    f8900055    ..U.    LDRB     r0,[r0,#0x55]
        0x00101c98:    2801        .(      CMP      r0,#1
        0x00101c9a:    d104        ..      BNE      0x101ca6 ; prvDeleteTCB + 58
        0x00101c9c:    e7ff        ..      B        0x101c9e ; prvDeleteTCB + 50
        0x00101c9e:    9801        ..      LDR      r0,[sp,#4]
        0x00101ca0:    f000ffe8    ....    BL       vPortFree ; 0x102c74
        0x00101ca4:    e00a        ..      B        0x101cbc ; prvDeleteTCB + 80
        0x00101ca6:    9801        ..      LDR      r0,[sp,#4]
        0x00101ca8:    f8900055    ..U.    LDRB     r0,[r0,#0x55]
        0x00101cac:    2802        .(      CMP      r0,#2
        0x00101cae:    d004        ..      BEQ      0x101cba ; prvDeleteTCB + 78
        0x00101cb0:    e7ff        ..      B        0x101cb2 ; prvDeleteTCB + 70
        0x00101cb2:    f000fe67    ..g.    BL       ulSetInterruptMask ; 0x102984
        0x00101cb6:    e7ff        ..      B        0x101cb8 ; prvDeleteTCB + 76
        0x00101cb8:    e7fe        ..      B        0x101cb8 ; prvDeleteTCB + 76
        0x00101cba:    e7ff        ..      B        0x101cbc ; prvDeleteTCB + 80
        0x00101cbc:    e7ff        ..      B        0x101cbe ; prvDeleteTCB + 82
        0x00101cbe:    b002        ..      ADD      sp,sp,#8
        0x00101cc0:    bd80        ..      POP      {r7,pc}
        0x00101cc2:    0000        ..      MOVS     r0,r0
    prvGetNextExpireTime
        0x00101cc4:    b082        ..      SUB      sp,sp,#8
        0x00101cc6:    9001        ..      STR      r0,[sp,#4]
        0x00101cc8:    f2402074    @.t     MOVW     r0,#0x274
        0x00101ccc:    f2c20010    ....    MOVT     r0,#0x2010
        0x00101cd0:    6800        .h      LDR      r0,[r0,#0]
        0x00101cd2:    6800        .h      LDR      r0,[r0,#0]
        0x00101cd4:    fab0f080    ....    CLZ      r0,r0
        0x00101cd8:    0940        @.      LSRS     r0,r0,#5
        0x00101cda:    9901        ..      LDR      r1,[sp,#4]
        0x00101cdc:    6008        .`      STR      r0,[r1,#0]
        0x00101cde:    9801        ..      LDR      r0,[sp,#4]
        0x00101ce0:    6800        .h      LDR      r0,[r0,#0]
        0x00101ce2:    b948        H.      CBNZ     r0,0x101cf8 ; prvGetNextExpireTime + 52
        0x00101ce4:    e7ff        ..      B        0x101ce6 ; prvGetNextExpireTime + 34
        0x00101ce6:    f2402074    @.t     MOVW     r0,#0x274
        0x00101cea:    f2c20010    ....    MOVT     r0,#0x2010
        0x00101cee:    6800        .h      LDR      r0,[r0,#0]
        0x00101cf0:    68c0        .h      LDR      r0,[r0,#0xc]
        0x00101cf2:    6800        .h      LDR      r0,[r0,#0]
        0x00101cf4:    9000        ..      STR      r0,[sp,#0]
        0x00101cf6:    e002        ..      B        0x101cfe ; prvGetNextExpireTime + 58
        0x00101cf8:    2000        .       MOVS     r0,#0
        0x00101cfa:    9000        ..      STR      r0,[sp,#0]
        0x00101cfc:    e7ff        ..      B        0x101cfe ; prvGetNextExpireTime + 58
        0x00101cfe:    9800        ..      LDR      r0,[sp,#0]
        0x00101d00:    b002        ..      ADD      sp,sp,#8
        0x00101d02:    4770        pG      BX       lr
    prvHeapInit
        0x00101d04:    b084        ..      SUB      sp,sp,#0x10
        0x00101d06:    f44f30c8    O..0    MOV      r0,#0x19000
        0x00101d0a:    9000        ..      STR      r0,[sp,#0]
        0x00101d0c:    f640003c    @.<.    MOV      r0,#0x83c
        0x00101d10:    f2c20010    ....    MOVT     r0,#0x2010
        0x00101d14:    9001        ..      STR      r0,[sp,#4]
        0x00101d16:    f89d0004    ....    LDRB     r0,[sp,#4]
        0x00101d1a:    0740        @.      LSLS     r0,r0,#29
        0x00101d1c:    b188        ..      CBZ      r0,0x101d42 ; prvHeapInit + 62
        0x00101d1e:    e7ff        ..      B        0x101d20 ; prvHeapInit + 28
        0x00101d20:    9801        ..      LDR      r0,[sp,#4]
        0x00101d22:    3007        .0      ADDS     r0,#7
        0x00101d24:    9001        ..      STR      r0,[sp,#4]
        0x00101d26:    9801        ..      LDR      r0,[sp,#4]
        0x00101d28:    f0200007     ...    BIC      r0,r0,#7
        0x00101d2c:    9001        ..      STR      r0,[sp,#4]
        0x00101d2e:    9801        ..      LDR      r0,[sp,#4]
        0x00101d30:    f640013c    @.<.    MOV      r1,#0x83c
        0x00101d34:    f2c20110    ....    MOVT     r1,#0x2010
        0x00101d38:    9a00        ..      LDR      r2,[sp,#0]
        0x00101d3a:    1a08        ..      SUBS     r0,r1,r0
        0x00101d3c:    4410        .D      ADD      r0,r0,r2
        0x00101d3e:    9000        ..      STR      r0,[sp,#0]
        0x00101d40:    e7ff        ..      B        0x101d42 ; prvHeapInit + 62
        0x00101d42:    9801        ..      LDR      r0,[sp,#4]
        0x00101d44:    9002        ..      STR      r0,[sp,#8]
        0x00101d46:    9802        ..      LDR      r0,[sp,#8]
        0x00101d48:    f640012c    @.,.    MOV      r1,#0x82c
        0x00101d4c:    f2c20110    ....    MOVT     r1,#0x2010
        0x00101d50:    6008        .`      STR      r0,[r1,#0]
        0x00101d52:    2000        .       MOVS     r0,#0
        0x00101d54:    6048        H`      STR      r0,[r1,#4]
        0x00101d56:    9902        ..      LDR      r1,[sp,#8]
        0x00101d58:    9a00        ..      LDR      r2,[sp,#0]
        0x00101d5a:    4411        .D      ADD      r1,r1,r2
        0x00101d5c:    9101        ..      STR      r1,[sp,#4]
        0x00101d5e:    9901        ..      LDR      r1,[sp,#4]
        0x00101d60:    3908        .9      SUBS     r1,r1,#8
        0x00101d62:    9101        ..      STR      r1,[sp,#4]
        0x00101d64:    9901        ..      LDR      r1,[sp,#4]
        0x00101d66:    f0210107    !...    BIC      r1,r1,#7
        0x00101d6a:    9101        ..      STR      r1,[sp,#4]
        0x00101d6c:    9901        ..      LDR      r1,[sp,#4]
        0x00101d6e:    f6400220    @. .    MOVW     r2,#0x820
        0x00101d72:    f2c20210    ....    MOVT     r2,#0x2010
        0x00101d76:    6011        .`      STR      r1,[r2,#0]
        0x00101d78:    6811        .h      LDR      r1,[r2,#0]
        0x00101d7a:    6048        H`      STR      r0,[r1,#4]
        0x00101d7c:    6811        .h      LDR      r1,[r2,#0]
        0x00101d7e:    6008        .`      STR      r0,[r1,#0]
        0x00101d80:    9802        ..      LDR      r0,[sp,#8]
        0x00101d82:    9003        ..      STR      r0,[sp,#0xc]
        0x00101d84:    9801        ..      LDR      r0,[sp,#4]
        0x00101d86:    9903        ..      LDR      r1,[sp,#0xc]
        0x00101d88:    1a40        @.      SUBS     r0,r0,r1
        0x00101d8a:    6048        H`      STR      r0,[r1,#4]
        0x00101d8c:    6810        .h      LDR      r0,[r2,#0]
        0x00101d8e:    9903        ..      LDR      r1,[sp,#0xc]
        0x00101d90:    6008        .`      STR      r0,[r1,#0]
        0x00101d92:    9803        ..      LDR      r0,[sp,#0xc]
        0x00101d94:    6840        @h      LDR      r0,[r0,#4]
        0x00101d96:    f6400134    @.4.    MOV      r1,#0x834
        0x00101d9a:    f2c20110    ....    MOVT     r1,#0x2010
        0x00101d9e:    6008        .`      STR      r0,[r1,#0]
        0x00101da0:    9803        ..      LDR      r0,[sp,#0xc]
        0x00101da2:    6840        @h      LDR      r0,[r0,#4]
        0x00101da4:    f6400128    @.(.    MOV      r1,#0x828
        0x00101da8:    f2c20110    ....    MOVT     r1,#0x2010
        0x00101dac:    6008        .`      STR      r0,[r1,#0]
        0x00101dae:    f6400024    @.$.    MOV      r0,#0x824
        0x00101db2:    f2c20010    ....    MOVT     r0,#0x2010
        0x00101db6:    2101        .!      MOVS     r1,#1
        0x00101db8:    7001        .p      STRB     r1,[r0,#0]
        0x00101dba:    b004        ..      ADD      sp,sp,#0x10
        0x00101dbc:    4770        pG      BX       lr
        0x00101dbe:    0000        ..      MOVS     r0,r0
    prvIdleTask
        0x00101dc0:    b082        ..      SUB      sp,sp,#8
        0x00101dc2:    9001        ..      STR      r0,[sp,#4]
        0x00101dc4:    f44f6080    O..`    MOV      r0,#0x400
        0x00101dc8:    df00        ..      SVC      #0x0 ; formerly SWI
        0x00101dca:    bf00        ..      NOP      
        0x00101dcc:    e7ff        ..      B        0x101dce ; prvIdleTask + 14
        0x00101dce:    f7fffef9    ....    BL       prvCheckTasksWaitingTermination ; 0x101bc4
        0x00101dd2:    f2401010    @...    MOVW     r0,#0x110
        0x00101dd6:    f2c20010    ....    MOVT     r0,#0x2010
        0x00101dda:    6800        .h      LDR      r0,[r0,#0]
        0x00101ddc:    2802        .(      CMP      r0,#2
        0x00101dde:    d303        ..      BCC      0x101de8 ; prvIdleTask + 40
        0x00101de0:    e7ff        ..      B        0x101de2 ; prvIdleTask + 34
        0x00101de2:    f001f81f    ....    BL       vPortYield ; 0x102e24
        0x00101de6:    e000        ..      B        0x101dea ; prvIdleTask + 42
        0x00101de8:    e7ff        ..      B        0x101dea ; prvIdleTask + 42
        0x00101dea:    f000fe27    ..'.    BL       vApplicationIdleHook ; 0x102a3c
        0x00101dee:    e7ee        ..      B        0x101dce ; prvIdleTask + 14
    prvInitialiseNewQueue
        0x00101df0:    b580        ..      PUSH     {r7,lr}
        0x00101df2:    b084        ..      SUB      sp,sp,#0x10
        0x00101df4:    f8ddc018    ....    LDR      r12,[sp,#0x18]
        0x00101df8:    9003        ..      STR      r0,[sp,#0xc]
        0x00101dfa:    9102        ..      STR      r1,[sp,#8]
        0x00101dfc:    9201        ..      STR      r2,[sp,#4]
        0x00101dfe:    f88d3003    ...0    STRB     r3,[sp,#3]
        0x00101e02:    9802        ..      LDR      r0,[sp,#8]
        0x00101e04:    b918        ..      CBNZ     r0,0x101e0e ; prvInitialiseNewQueue + 30
        0x00101e06:    e7ff        ..      B        0x101e08 ; prvInitialiseNewQueue + 24
        0x00101e08:    9806        ..      LDR      r0,[sp,#0x18]
        0x00101e0a:    6000        .`      STR      r0,[r0,#0]
        0x00101e0c:    e003        ..      B        0x101e16 ; prvInitialiseNewQueue + 38
        0x00101e0e:    9801        ..      LDR      r0,[sp,#4]
        0x00101e10:    9906        ..      LDR      r1,[sp,#0x18]
        0x00101e12:    6008        .`      STR      r0,[r1,#0]
        0x00101e14:    e7ff        ..      B        0x101e16 ; prvInitialiseNewQueue + 38
        0x00101e16:    9803        ..      LDR      r0,[sp,#0xc]
        0x00101e18:    9906        ..      LDR      r1,[sp,#0x18]
        0x00101e1a:    63c8        .c      STR      r0,[r1,#0x3c]
        0x00101e1c:    9802        ..      LDR      r0,[sp,#8]
        0x00101e1e:    9906        ..      LDR      r1,[sp,#0x18]
        0x00101e20:    6408        .d      STR      r0,[r1,#0x40]
        0x00101e22:    9806        ..      LDR      r0,[sp,#0x18]
        0x00101e24:    f001fae0    ....    BL       xQueueGenericReset ; 0x1033e8
        0x00101e28:    f89d0003    ....    LDRB     r0,[sp,#3]
        0x00101e2c:    9906        ..      LDR      r1,[sp,#0x18]
        0x00101e2e:    f881004c    ..L.    STRB     r0,[r1,#0x4c]
        0x00101e32:    b004        ..      ADD      sp,sp,#0x10
        0x00101e34:    bd80        ..      POP      {r7,pc}
        0x00101e36:    0000        ..      MOVS     r0,r0
    prvInitialiseNewTask
        0x00101e38:    b510        ..      PUSH     {r4,lr}
        0x00101e3a:    b088        ..      SUB      sp,sp,#0x20
        0x00101e3c:    f8ddc030    ..0.    LDR      r12,[sp,#0x30]
        0x00101e40:    f8ddc02c    ..,.    LDR      r12,[sp,#0x2c]
        0x00101e44:    f8ddc028    ..(.    LDR      r12,[sp,#0x28]
        0x00101e48:    9007        ..      STR      r0,[sp,#0x1c]
        0x00101e4a:    9106        ..      STR      r1,[sp,#0x18]
        0x00101e4c:    9205        ..      STR      r2,[sp,#0x14]
        0x00101e4e:    9304        ..      STR      r3,[sp,#0x10]
        0x00101e50:    2000        .       MOVS     r0,#0
        0x00101e52:    9003        ..      STR      r0,[sp,#0xc]
        0x00101e54:    980c        ..      LDR      r0,[sp,#0x30]
        0x00101e56:    6b00        .k      LDR      r0,[r0,#0x30]
        0x00101e58:    9905        ..      LDR      r1,[sp,#0x14]
        0x00101e5a:    0089        ..      LSLS     r1,r1,#2
        0x00101e5c:    22a5        ."      MOVS     r2,#0xa5
        0x00101e5e:    f7fffb4b    ..K.    BL       __aeabi_memset4 ; 0x1014f8
        0x00101e62:    980c        ..      LDR      r0,[sp,#0x30]
        0x00101e64:    6b00        .k      LDR      r0,[r0,#0x30]
        0x00101e66:    9905        ..      LDR      r1,[sp,#0x14]
        0x00101e68:    eb000081    ....    ADD      r0,r0,r1,LSL #2
        0x00101e6c:    3804        .8      SUBS     r0,#4
        0x00101e6e:    9002        ..      STR      r0,[sp,#8]
        0x00101e70:    9802        ..      LDR      r0,[sp,#8]
        0x00101e72:    f0200007     ...    BIC      r0,r0,#7
        0x00101e76:    9002        ..      STR      r0,[sp,#8]
        0x00101e78:    f89d0008    ....    LDRB     r0,[sp,#8]
        0x00101e7c:    0740        @.      LSLS     r0,r0,#29
        0x00101e7e:    b120         .      CBZ      r0,0x101e8a ; prvInitialiseNewTask + 82
        0x00101e80:    e7ff        ..      B        0x101e82 ; prvInitialiseNewTask + 74
        0x00101e82:    f000fd7f    ....    BL       ulSetInterruptMask ; 0x102984
        0x00101e86:    e7ff        ..      B        0x101e88 ; prvInitialiseNewTask + 80
        0x00101e88:    e7fe        ..      B        0x101e88 ; prvInitialiseNewTask + 80
        0x00101e8a:    9806        ..      LDR      r0,[sp,#0x18]
        0x00101e8c:    b300        ..      CBZ      r0,0x101ed0 ; prvInitialiseNewTask + 152
        0x00101e8e:    e7ff        ..      B        0x101e90 ; prvInitialiseNewTask + 88
        0x00101e90:    2000        .       MOVS     r0,#0
        0x00101e92:    9001        ..      STR      r0,[sp,#4]
        0x00101e94:    e7ff        ..      B        0x101e96 ; prvInitialiseNewTask + 94
        0x00101e96:    9801        ..      LDR      r0,[sp,#4]
        0x00101e98:    280b        .(      CMP      r0,#0xb
        0x00101e9a:    d813        ..      BHI      0x101ec4 ; prvInitialiseNewTask + 140
        0x00101e9c:    e7ff        ..      B        0x101e9e ; prvInitialiseNewTask + 102
        0x00101e9e:    9806        ..      LDR      r0,[sp,#0x18]
        0x00101ea0:    9901        ..      LDR      r1,[sp,#4]
        0x00101ea2:    5c40        @\      LDRB     r0,[r0,r1]
        0x00101ea4:    9a0c        ..      LDR      r2,[sp,#0x30]
        0x00101ea6:    4411        .D      ADD      r1,r1,r2
        0x00101ea8:    f8810034    ..4.    STRB     r0,[r1,#0x34]
        0x00101eac:    9806        ..      LDR      r0,[sp,#0x18]
        0x00101eae:    9901        ..      LDR      r1,[sp,#4]
        0x00101eb0:    5c40        @\      LDRB     r0,[r0,r1]
        0x00101eb2:    b908        ..      CBNZ     r0,0x101eb8 ; prvInitialiseNewTask + 128
        0x00101eb4:    e7ff        ..      B        0x101eb6 ; prvInitialiseNewTask + 126
        0x00101eb6:    e006        ..      B        0x101ec6 ; prvInitialiseNewTask + 142
        0x00101eb8:    e7ff        ..      B        0x101eba ; prvInitialiseNewTask + 130
        0x00101eba:    e7ff        ..      B        0x101ebc ; prvInitialiseNewTask + 132
        0x00101ebc:    9801        ..      LDR      r0,[sp,#4]
        0x00101ebe:    3001        .0      ADDS     r0,#1
        0x00101ec0:    9001        ..      STR      r0,[sp,#4]
        0x00101ec2:    e7e8        ..      B        0x101e96 ; prvInitialiseNewTask + 94
        0x00101ec4:    e7ff        ..      B        0x101ec6 ; prvInitialiseNewTask + 142
        0x00101ec6:    980c        ..      LDR      r0,[sp,#0x30]
        0x00101ec8:    2100        .!      MOVS     r1,#0
        0x00101eca:    f880103f    ..?.    STRB     r1,[r0,#0x3f]
        0x00101ece:    e004        ..      B        0x101eda ; prvInitialiseNewTask + 162
        0x00101ed0:    980c        ..      LDR      r0,[sp,#0x30]
        0x00101ed2:    2100        .!      MOVS     r1,#0
        0x00101ed4:    f8801034    ..4.    STRB     r1,[r0,#0x34]
        0x00101ed8:    e7ff        ..      B        0x101eda ; prvInitialiseNewTask + 162
        0x00101eda:    980a        ..      LDR      r0,[sp,#0x28]
        0x00101edc:    280a        .(      CMP      r0,#0xa
        0x00101ede:    d304        ..      BCC      0x101eea ; prvInitialiseNewTask + 178
        0x00101ee0:    e7ff        ..      B        0x101ee2 ; prvInitialiseNewTask + 170
        0x00101ee2:    f000fd4f    ..O.    BL       ulSetInterruptMask ; 0x102984
        0x00101ee6:    e7ff        ..      B        0x101ee8 ; prvInitialiseNewTask + 176
        0x00101ee8:    e7fe        ..      B        0x101ee8 ; prvInitialiseNewTask + 176
        0x00101eea:    980a        ..      LDR      r0,[sp,#0x28]
        0x00101eec:    280a        .(      CMP      r0,#0xa
        0x00101eee:    d303        ..      BCC      0x101ef8 ; prvInitialiseNewTask + 192
        0x00101ef0:    e7ff        ..      B        0x101ef2 ; prvInitialiseNewTask + 186
        0x00101ef2:    2009        .       MOVS     r0,#9
        0x00101ef4:    900a        ..      STR      r0,[sp,#0x28]
        0x00101ef6:    e000        ..      B        0x101efa ; prvInitialiseNewTask + 194
        0x00101ef8:    e7ff        ..      B        0x101efa ; prvInitialiseNewTask + 194
        0x00101efa:    980a        ..      LDR      r0,[sp,#0x28]
        0x00101efc:    990c        ..      LDR      r1,[sp,#0x30]
        0x00101efe:    62c8        .b      STR      r0,[r1,#0x2c]
        0x00101f00:    980a        ..      LDR      r0,[sp,#0x28]
        0x00101f02:    990c        ..      LDR      r1,[sp,#0x30]
        0x00101f04:    6488        .d      STR      r0,[r1,#0x48]
        0x00101f06:    980c        ..      LDR      r0,[sp,#0x30]
        0x00101f08:    2400        .$      MOVS     r4,#0
        0x00101f0a:    64c4        .d      STR      r4,[r0,#0x4c]
        0x00101f0c:    980c        ..      LDR      r0,[sp,#0x30]
        0x00101f0e:    3004        .0      ADDS     r0,#4
        0x00101f10:    f000fe24    ..$.    BL       vListInitialiseItem ; 0x102b5c
        0x00101f14:    980c        ..      LDR      r0,[sp,#0x30]
        0x00101f16:    3018        .0      ADDS     r0,r0,#0x18
        0x00101f18:    f000fe20    .. .    BL       vListInitialiseItem ; 0x102b5c
        0x00101f1c:    980c        ..      LDR      r0,[sp,#0x30]
        0x00101f1e:    6100        .a      STR      r0,[r0,#0x10]
        0x00101f20:    980a        ..      LDR      r0,[sp,#0x28]
        0x00101f22:    f1c0000a    ....    RSB      r0,r0,#0xa
        0x00101f26:    990c        ..      LDR      r1,[sp,#0x30]
        0x00101f28:    6188        .a      STR      r0,[r1,#0x18]
        0x00101f2a:    980c        ..      LDR      r0,[sp,#0x30]
        0x00101f2c:    6240        @b      STR      r0,[r0,#0x24]
        0x00101f2e:    980c        ..      LDR      r0,[sp,#0x30]
        0x00101f30:    6504        .e      STR      r4,[r0,#0x50]
        0x00101f32:    980c        ..      LDR      r0,[sp,#0x30]
        0x00101f34:    f8804054    ..T@    STRB     r4,[r0,#0x54]
        0x00101f38:    9802        ..      LDR      r0,[sp,#8]
        0x00101f3a:    990c        ..      LDR      r1,[sp,#0x30]
        0x00101f3c:    6b09        .k      LDR      r1,[r1,#0x30]
        0x00101f3e:    9a07        ..      LDR      r2,[sp,#0x1c]
        0x00101f40:    9b04        ..      LDR      r3,[sp,#0x10]
        0x00101f42:    f000fc3f    ..?.    BL       pxPortInitialiseStack ; 0x1027c4
        0x00101f46:    990c        ..      LDR      r1,[sp,#0x30]
        0x00101f48:    6008        .`      STR      r0,[r1,#0]
        0x00101f4a:    980b        ..      LDR      r0,[sp,#0x2c]
        0x00101f4c:    b120         .      CBZ      r0,0x101f58 ; prvInitialiseNewTask + 288
        0x00101f4e:    e7ff        ..      B        0x101f50 ; prvInitialiseNewTask + 280
        0x00101f50:    980c        ..      LDR      r0,[sp,#0x30]
        0x00101f52:    990b        ..      LDR      r1,[sp,#0x2c]
        0x00101f54:    6008        .`      STR      r0,[r1,#0]
        0x00101f56:    e000        ..      B        0x101f5a ; prvInitialiseNewTask + 290
        0x00101f58:    e7ff        ..      B        0x101f5a ; prvInitialiseNewTask + 290
        0x00101f5a:    b008        ..      ADD      sp,sp,#0x20
        0x00101f5c:    bd10        ..      POP      {r4,pc}
        0x00101f5e:    0000        ..      MOVS     r0,r0
    prvInitialiseTaskLists
        0x00101f60:    b5b0        ..      PUSH     {r4,r5,r7,lr}
        0x00101f62:    b082        ..      SUB      sp,sp,#8
        0x00101f64:    2000        .       MOVS     r0,#0
        0x00101f66:    9001        ..      STR      r0,[sp,#4]
        0x00101f68:    e7ff        ..      B        0x101f6a ; prvInitialiseTaskLists + 10
        0x00101f6a:    9801        ..      LDR      r0,[sp,#4]
        0x00101f6c:    2809        .(      CMP      r0,#9
        0x00101f6e:    d810        ..      BHI      0x101f92 ; prvInitialiseTaskLists + 50
        0x00101f70:    e7ff        ..      B        0x101f72 ; prvInitialiseTaskLists + 18
        0x00101f72:    9801        ..      LDR      r0,[sp,#4]
        0x00101f74:    eb000080    ....    ADD      r0,r0,r0,LSL #2
        0x00101f78:    f2401110    @...    MOVW     r1,#0x110
        0x00101f7c:    f2c20110    ....    MOVT     r1,#0x2010
        0x00101f80:    eb010080    ....    ADD      r0,r1,r0,LSL #2
        0x00101f84:    f000fdd2    ....    BL       vListInitialise ; 0x102b2c
        0x00101f88:    e7ff        ..      B        0x101f8a ; prvInitialiseTaskLists + 42
        0x00101f8a:    9801        ..      LDR      r0,[sp,#4]
        0x00101f8c:    3001        .0      ADDS     r0,#1
        0x00101f8e:    9001        ..      STR      r0,[sp,#4]
        0x00101f90:    e7eb        ..      B        0x101f6a ; prvInitialiseTaskLists + 10
        0x00101f92:    f24014e4    @...    MOVW     r4,#0x1e4
        0x00101f96:    f2c20410    ....    MOVT     r4,#0x2010
        0x00101f9a:    4620         F      MOV      r0,r4
        0x00101f9c:    f000fdc6    ....    BL       vListInitialise ; 0x102b2c
        0x00101fa0:    f24015f8    @...    MOVW     r5,#0x1f8
        0x00101fa4:    f2c20510    ....    MOVT     r5,#0x2010
        0x00101fa8:    4628        (F      MOV      r0,r5
        0x00101faa:    f000fdbf    ....    BL       vListInitialise ; 0x102b2c
        0x00101fae:    f240200c    @..     MOVW     r0,#0x20c
        0x00101fb2:    f2c20010    ....    MOVT     r0,#0x2010
        0x00101fb6:    f000fdb9    ....    BL       vListInitialise ; 0x102b2c
        0x00101fba:    f2402020    @.      MOVW     r0,#0x220
        0x00101fbe:    f2c20010    ....    MOVT     r0,#0x2010
        0x00101fc2:    f000fdb3    ....    BL       vListInitialise ; 0x102b2c
        0x00101fc6:    f2402034    @.4     MOVW     r0,#0x234
        0x00101fca:    f2c20010    ....    MOVT     r0,#0x2010
        0x00101fce:    f000fdad    ....    BL       vListInitialise ; 0x102b2c
        0x00101fd2:    f2402048    @.H     MOVW     r0,#0x248
        0x00101fd6:    f2c20010    ....    MOVT     r0,#0x2010
        0x00101fda:    6004        .`      STR      r4,[r0,#0]
        0x00101fdc:    f240204c    @.L     MOVW     r0,#0x24c
        0x00101fe0:    f2c20010    ....    MOVT     r0,#0x2010
        0x00101fe4:    6005        .`      STR      r5,[r0,#0]
        0x00101fe6:    b002        ..      ADD      sp,sp,#8
        0x00101fe8:    bdb0        ..      POP      {r4,r5,r7,pc}
        0x00101fea:    0000        ..      MOVS     r0,r0
    prvInsertBlockIntoFreeList
        0x00101fec:    b083        ..      SUB      sp,sp,#0xc
        0x00101fee:    9002        ..      STR      r0,[sp,#8]
        0x00101ff0:    f640002c    @.,.    MOV      r0,#0x82c
        0x00101ff4:    f2c20010    ....    MOVT     r0,#0x2010
        0x00101ff8:    9001        ..      STR      r0,[sp,#4]
        0x00101ffa:    e7ff        ..      B        0x101ffc ; prvInsertBlockIntoFreeList + 16
        0x00101ffc:    9801        ..      LDR      r0,[sp,#4]
        0x00101ffe:    6800        .h      LDR      r0,[r0,#0]
        0x00102000:    9902        ..      LDR      r1,[sp,#8]
        0x00102002:    4288        .B      CMP      r0,r1
        0x00102004:    d205        ..      BCS      0x102012 ; prvInsertBlockIntoFreeList + 38
        0x00102006:    e7ff        ..      B        0x102008 ; prvInsertBlockIntoFreeList + 28
        0x00102008:    e7ff        ..      B        0x10200a ; prvInsertBlockIntoFreeList + 30
        0x0010200a:    9801        ..      LDR      r0,[sp,#4]
        0x0010200c:    6800        .h      LDR      r0,[r0,#0]
        0x0010200e:    9001        ..      STR      r0,[sp,#4]
        0x00102010:    e7f4        ..      B        0x101ffc ; prvInsertBlockIntoFreeList + 16
        0x00102012:    9801        ..      LDR      r0,[sp,#4]
        0x00102014:    9000        ..      STR      r0,[sp,#0]
        0x00102016:    9800        ..      LDR      r0,[sp,#0]
        0x00102018:    9901        ..      LDR      r1,[sp,#4]
        0x0010201a:    6849        Ih      LDR      r1,[r1,#4]
        0x0010201c:    4408        .D      ADD      r0,r0,r1
        0x0010201e:    9902        ..      LDR      r1,[sp,#8]
        0x00102020:    4288        .B      CMP      r0,r1
        0x00102022:    d109        ..      BNE      0x102038 ; prvInsertBlockIntoFreeList + 76
        0x00102024:    e7ff        ..      B        0x102026 ; prvInsertBlockIntoFreeList + 58
        0x00102026:    9802        ..      LDR      r0,[sp,#8]
        0x00102028:    6840        @h      LDR      r0,[r0,#4]
        0x0010202a:    9901        ..      LDR      r1,[sp,#4]
        0x0010202c:    684a        Jh      LDR      r2,[r1,#4]
        0x0010202e:    4410        .D      ADD      r0,r0,r2
        0x00102030:    6048        H`      STR      r0,[r1,#4]
        0x00102032:    9801        ..      LDR      r0,[sp,#4]
        0x00102034:    9002        ..      STR      r0,[sp,#8]
        0x00102036:    e000        ..      B        0x10203a ; prvInsertBlockIntoFreeList + 78
        0x00102038:    e7ff        ..      B        0x10203a ; prvInsertBlockIntoFreeList + 78
        0x0010203a:    9802        ..      LDR      r0,[sp,#8]
        0x0010203c:    9000        ..      STR      r0,[sp,#0]
        0x0010203e:    9800        ..      LDR      r0,[sp,#0]
        0x00102040:    9902        ..      LDR      r1,[sp,#8]
        0x00102042:    6849        Ih      LDR      r1,[r1,#4]
        0x00102044:    4408        .D      ADD      r0,r0,r1
        0x00102046:    9901        ..      LDR      r1,[sp,#4]
        0x00102048:    6809        .h      LDR      r1,[r1,#0]
        0x0010204a:    4288        .B      CMP      r0,r1
        0x0010204c:    d120         .      BNE      0x102090 ; prvInsertBlockIntoFreeList + 164
        0x0010204e:    e7ff        ..      B        0x102050 ; prvInsertBlockIntoFreeList + 100
        0x00102050:    9801        ..      LDR      r0,[sp,#4]
        0x00102052:    6800        .h      LDR      r0,[r0,#0]
        0x00102054:    f6400120    @. .    MOVW     r1,#0x820
        0x00102058:    f2c20110    ....    MOVT     r1,#0x2010
        0x0010205c:    6809        .h      LDR      r1,[r1,#0]
        0x0010205e:    4288        .B      CMP      r0,r1
        0x00102060:    d00d        ..      BEQ      0x10207e ; prvInsertBlockIntoFreeList + 146
        0x00102062:    e7ff        ..      B        0x102064 ; prvInsertBlockIntoFreeList + 120
        0x00102064:    9801        ..      LDR      r0,[sp,#4]
        0x00102066:    6800        .h      LDR      r0,[r0,#0]
        0x00102068:    6840        @h      LDR      r0,[r0,#4]
        0x0010206a:    9902        ..      LDR      r1,[sp,#8]
        0x0010206c:    684a        Jh      LDR      r2,[r1,#4]
        0x0010206e:    4410        .D      ADD      r0,r0,r2
        0x00102070:    6048        H`      STR      r0,[r1,#4]
        0x00102072:    9801        ..      LDR      r0,[sp,#4]
        0x00102074:    6800        .h      LDR      r0,[r0,#0]
        0x00102076:    6800        .h      LDR      r0,[r0,#0]
        0x00102078:    9902        ..      LDR      r1,[sp,#8]
        0x0010207a:    6008        .`      STR      r0,[r1,#0]
        0x0010207c:    e007        ..      B        0x10208e ; prvInsertBlockIntoFreeList + 162
        0x0010207e:    f6400020    @. .    MOVW     r0,#0x820
        0x00102082:    f2c20010    ....    MOVT     r0,#0x2010
        0x00102086:    6800        .h      LDR      r0,[r0,#0]
        0x00102088:    9902        ..      LDR      r1,[sp,#8]
        0x0010208a:    6008        .`      STR      r0,[r1,#0]
        0x0010208c:    e7ff        ..      B        0x10208e ; prvInsertBlockIntoFreeList + 162
        0x0010208e:    e004        ..      B        0x10209a ; prvInsertBlockIntoFreeList + 174
        0x00102090:    9801        ..      LDR      r0,[sp,#4]
        0x00102092:    6800        .h      LDR      r0,[r0,#0]
        0x00102094:    9902        ..      LDR      r1,[sp,#8]
        0x00102096:    6008        .`      STR      r0,[r1,#0]
        0x00102098:    e7ff        ..      B        0x10209a ; prvInsertBlockIntoFreeList + 174
        0x0010209a:    9801        ..      LDR      r0,[sp,#4]
        0x0010209c:    9902        ..      LDR      r1,[sp,#8]
        0x0010209e:    4288        .B      CMP      r0,r1
        0x001020a0:    d004        ..      BEQ      0x1020ac ; prvInsertBlockIntoFreeList + 192
        0x001020a2:    e7ff        ..      B        0x1020a4 ; prvInsertBlockIntoFreeList + 184
        0x001020a4:    9802        ..      LDR      r0,[sp,#8]
        0x001020a6:    9901        ..      LDR      r1,[sp,#4]
        0x001020a8:    6008        .`      STR      r0,[r1,#0]
        0x001020aa:    e000        ..      B        0x1020ae ; prvInsertBlockIntoFreeList + 194
        0x001020ac:    e7ff        ..      B        0x1020ae ; prvInsertBlockIntoFreeList + 194
        0x001020ae:    b003        ..      ADD      sp,sp,#0xc
        0x001020b0:    4770        pG      BX       lr
        0x001020b2:    0000        ..      MOVS     r0,r0
    prvInsertTimerInActiveList
        0x001020b4:    b580        ..      PUSH     {r7,lr}
        0x001020b6:    b086        ..      SUB      sp,sp,#0x18
        0x001020b8:    9005        ..      STR      r0,[sp,#0x14]
        0x001020ba:    9104        ..      STR      r1,[sp,#0x10]
        0x001020bc:    9203        ..      STR      r2,[sp,#0xc]
        0x001020be:    9302        ..      STR      r3,[sp,#8]
        0x001020c0:    2000        .       MOVS     r0,#0
        0x001020c2:    9001        ..      STR      r0,[sp,#4]
        0x001020c4:    9804        ..      LDR      r0,[sp,#0x10]
        0x001020c6:    9905        ..      LDR      r1,[sp,#0x14]
        0x001020c8:    6048        H`      STR      r0,[r1,#4]
        0x001020ca:    9805        ..      LDR      r0,[sp,#0x14]
        0x001020cc:    6100        .a      STR      r0,[r0,#0x10]
        0x001020ce:    9804        ..      LDR      r0,[sp,#0x10]
        0x001020d0:    9903        ..      LDR      r1,[sp,#0xc]
        0x001020d2:    4288        .B      CMP      r0,r1
        0x001020d4:    d816        ..      BHI      0x102104 ; prvInsertTimerInActiveList + 80
        0x001020d6:    e7ff        ..      B        0x1020d8 ; prvInsertTimerInActiveList + 36
        0x001020d8:    9803        ..      LDR      r0,[sp,#0xc]
        0x001020da:    9902        ..      LDR      r1,[sp,#8]
        0x001020dc:    1a40        @.      SUBS     r0,r0,r1
        0x001020de:    9905        ..      LDR      r1,[sp,#0x14]
        0x001020e0:    6989        .i      LDR      r1,[r1,#0x18]
        0x001020e2:    4288        .B      CMP      r0,r1
        0x001020e4:    d303        ..      BCC      0x1020ee ; prvInsertTimerInActiveList + 58
        0x001020e6:    e7ff        ..      B        0x1020e8 ; prvInsertTimerInActiveList + 52
        0x001020e8:    2001        .       MOVS     r0,#1
        0x001020ea:    9001        ..      STR      r0,[sp,#4]
        0x001020ec:    e009        ..      B        0x102102 ; prvInsertTimerInActiveList + 78
        0x001020ee:    f2402070    @.p     MOVW     r0,#0x270
        0x001020f2:    f2c20010    ....    MOVT     r0,#0x2010
        0x001020f6:    6800        .h      LDR      r0,[r0,#0]
        0x001020f8:    9905        ..      LDR      r1,[sp,#0x14]
        0x001020fa:    3104        .1      ADDS     r1,#4
        0x001020fc:    f000fd36    ..6.    BL       vListInsert ; 0x102b6c
        0x00102100:    e7ff        ..      B        0x102102 ; prvInsertTimerInActiveList + 78
        0x00102102:    e017        ..      B        0x102134 ; prvInsertTimerInActiveList + 128
        0x00102104:    9803        ..      LDR      r0,[sp,#0xc]
        0x00102106:    9902        ..      LDR      r1,[sp,#8]
        0x00102108:    4288        .B      CMP      r0,r1
        0x0010210a:    d208        ..      BCS      0x10211e ; prvInsertTimerInActiveList + 106
        0x0010210c:    e7ff        ..      B        0x10210e ; prvInsertTimerInActiveList + 90
        0x0010210e:    9804        ..      LDR      r0,[sp,#0x10]
        0x00102110:    9902        ..      LDR      r1,[sp,#8]
        0x00102112:    4288        .B      CMP      r0,r1
        0x00102114:    d303        ..      BCC      0x10211e ; prvInsertTimerInActiveList + 106
        0x00102116:    e7ff        ..      B        0x102118 ; prvInsertTimerInActiveList + 100
        0x00102118:    2001        .       MOVS     r0,#1
        0x0010211a:    9001        ..      STR      r0,[sp,#4]
        0x0010211c:    e009        ..      B        0x102132 ; prvInsertTimerInActiveList + 126
        0x0010211e:    f2402074    @.t     MOVW     r0,#0x274
        0x00102122:    f2c20010    ....    MOVT     r0,#0x2010
        0x00102126:    6800        .h      LDR      r0,[r0,#0]
        0x00102128:    9905        ..      LDR      r1,[sp,#0x14]
        0x0010212a:    3104        .1      ADDS     r1,#4
        0x0010212c:    f000fd1e    ....    BL       vListInsert ; 0x102b6c
        0x00102130:    e7ff        ..      B        0x102132 ; prvInsertTimerInActiveList + 126
        0x00102132:    e7ff        ..      B        0x102134 ; prvInsertTimerInActiveList + 128
        0x00102134:    9801        ..      LDR      r0,[sp,#4]
        0x00102136:    b006        ..      ADD      sp,sp,#0x18
        0x00102138:    bd80        ..      POP      {r7,pc}
        0x0010213a:    0000        ..      MOVS     r0,r0
    prvIsQueueEmpty
        0x0010213c:    b580        ..      PUSH     {r7,lr}
        0x0010213e:    b082        ..      SUB      sp,sp,#8
        0x00102140:    9001        ..      STR      r0,[sp,#4]
        0x00102142:    f000fd6b    ..k.    BL       vPortEnterCritical ; 0x102c1c
        0x00102146:    9801        ..      LDR      r0,[sp,#4]
        0x00102148:    6b80        .k      LDR      r0,[r0,#0x38]
        0x0010214a:    b918        ..      CBNZ     r0,0x102154 ; prvIsQueueEmpty + 24
        0x0010214c:    e7ff        ..      B        0x10214e ; prvIsQueueEmpty + 18
        0x0010214e:    2001        .       MOVS     r0,#1
        0x00102150:    9000        ..      STR      r0,[sp,#0]
        0x00102152:    e002        ..      B        0x10215a ; prvIsQueueEmpty + 30
        0x00102154:    2000        .       MOVS     r0,#0
        0x00102156:    9000        ..      STR      r0,[sp,#0]
        0x00102158:    e7ff        ..      B        0x10215a ; prvIsQueueEmpty + 30
        0x0010215a:    f000fd6f    ..o.    BL       vPortExitCritical ; 0x102c3c
        0x0010215e:    9800        ..      LDR      r0,[sp,#0]
        0x00102160:    b002        ..      ADD      sp,sp,#8
        0x00102162:    bd80        ..      POP      {r7,pc}
    prvProcessExpiredTimer
        0x00102164:    b580        ..      PUSH     {r7,lr}
        0x00102166:    b084        ..      SUB      sp,sp,#0x10
        0x00102168:    9003        ..      STR      r0,[sp,#0xc]
        0x0010216a:    9102        ..      STR      r1,[sp,#8]
        0x0010216c:    f2402074    @.t     MOVW     r0,#0x274
        0x00102170:    f2c20010    ....    MOVT     r0,#0x2010
        0x00102174:    6800        .h      LDR      r0,[r0,#0]
        0x00102176:    68c0        .h      LDR      r0,[r0,#0xc]
        0x00102178:    68c0        .h      LDR      r0,[r0,#0xc]
        0x0010217a:    9001        ..      STR      r0,[sp,#4]
        0x0010217c:    9801        ..      LDR      r0,[sp,#4]
        0x0010217e:    3004        .0      ADDS     r0,#4
        0x00102180:    f000fc0c    ....    BL       uxListRemove ; 0x10299c
        0x00102184:    9801        ..      LDR      r0,[sp,#4]
        0x00102186:    f8900028    ..(.    LDRB     r0,[r0,#0x28]
        0x0010218a:    0740        @.      LSLS     r0,r0,#29
        0x0010218c:    2800        .(      CMP      r0,#0
        0x0010218e:    d506        ..      BPL      0x10219e ; prvProcessExpiredTimer + 58
        0x00102190:    e7ff        ..      B        0x102192 ; prvProcessExpiredTimer + 46
        0x00102192:    9801        ..      LDR      r0,[sp,#4]
        0x00102194:    9903        ..      LDR      r1,[sp,#0xc]
        0x00102196:    9a02        ..      LDR      r2,[sp,#8]
        0x00102198:    f000f900    ....    BL       prvReloadTimer ; 0x10239c
        0x0010219c:    e007        ..      B        0x1021ae ; prvProcessExpiredTimer + 74
        0x0010219e:    9801        ..      LDR      r0,[sp,#4]
        0x001021a0:    f8901028    ..(.    LDRB     r1,[r0,#0x28]
        0x001021a4:    f00101fe    ....    AND      r1,r1,#0xfe
        0x001021a8:    f8801028    ..(.    STRB     r1,[r0,#0x28]
        0x001021ac:    e7ff        ..      B        0x1021ae ; prvProcessExpiredTimer + 74
        0x001021ae:    9801        ..      LDR      r0,[sp,#4]
        0x001021b0:    6a01        .j      LDR      r1,[r0,#0x20]
        0x001021b2:    4788        .G      BLX      r1
        0x001021b4:    b004        ..      ADD      sp,sp,#0x10
        0x001021b6:    bd80        ..      POP      {r7,pc}
    prvProcessReceivedCommands
        0x001021b8:    b580        ..      PUSH     {r7,lr}
        0x001021ba:    b088        ..      SUB      sp,sp,#0x20
        0x001021bc:    e7ff        ..      B        0x1021be ; prvProcessReceivedCommands + 6
        0x001021be:    f2402068    @.h     MOVW     r0,#0x268
        0x001021c2:    f2c20010    ....    MOVT     r0,#0x2010
        0x001021c6:    6800        .h      LDR      r0,[r0,#0]
        0x001021c8:    a904        ..      ADD      r1,sp,#0x10
        0x001021ca:    f001f979    ..y.    BL       xQueueReceive ; 0x1034c0
        0x001021ce:    2800        .(      CMP      r0,#0
        0x001021d0:    f000809d    ....    BEQ.W    0x10230e ; prvProcessReceivedCommands + 342
        0x001021d4:    e7ff        ..      B        0x1021d6 ; prvProcessReceivedCommands + 30
        0x001021d6:    9804        ..      LDR      r0,[sp,#0x10]
        0x001021d8:    f1b03fff    ...?    CMP      r0,#0xffffffff
        0x001021dc:    dc10        ..      BGT      0x102200 ; prvProcessReceivedCommands + 72
        0x001021de:    e7ff        ..      B        0x1021e0 ; prvProcessReceivedCommands + 40
        0x001021e0:    a804        ..      ADD      r0,sp,#0x10
        0x001021e2:    3004        .0      ADDS     r0,#4
        0x001021e4:    9000        ..      STR      r0,[sp,#0]
        0x001021e6:    9800        ..      LDR      r0,[sp,#0]
        0x001021e8:    b920         .      CBNZ     r0,0x1021f4 ; prvProcessReceivedCommands + 60
        0x001021ea:    e7ff        ..      B        0x1021ec ; prvProcessReceivedCommands + 52
        0x001021ec:    f000fbca    ....    BL       ulSetInterruptMask ; 0x102984
        0x001021f0:    e7ff        ..      B        0x1021f2 ; prvProcessReceivedCommands + 58
        0x001021f2:    e7fe        ..      B        0x1021f2 ; prvProcessReceivedCommands + 58
        0x001021f4:    9900        ..      LDR      r1,[sp,#0]
        0x001021f6:    680a        .h      LDR      r2,[r1,#0]
        0x001021f8:    6848        Hh      LDR      r0,[r1,#4]
        0x001021fa:    6889        .h      LDR      r1,[r1,#8]
        0x001021fc:    4790        .G      BLX      r2
        0x001021fe:    e000        ..      B        0x102202 ; prvProcessReceivedCommands + 74
        0x00102200:    e7ff        ..      B        0x102202 ; prvProcessReceivedCommands + 74
        0x00102202:    9804        ..      LDR      r0,[sp,#0x10]
        0x00102204:    2800        .(      CMP      r0,#0
        0x00102206:    f1008081    ....    BMI.W    0x10230c ; prvProcessReceivedCommands + 340
        0x0010220a:    e7ff        ..      B        0x10220c ; prvProcessReceivedCommands + 84
        0x0010220c:    9806        ..      LDR      r0,[sp,#0x18]
        0x0010220e:    9003        ..      STR      r0,[sp,#0xc]
        0x00102210:    9803        ..      LDR      r0,[sp,#0xc]
        0x00102212:    6940        @i      LDR      r0,[r0,#0x14]
        0x00102214:    b128        (.      CBZ      r0,0x102222 ; prvProcessReceivedCommands + 106
        0x00102216:    e7ff        ..      B        0x102218 ; prvProcessReceivedCommands + 96
        0x00102218:    9803        ..      LDR      r0,[sp,#0xc]
        0x0010221a:    3004        .0      ADDS     r0,#4
        0x0010221c:    f000fbbe    ....    BL       uxListRemove ; 0x10299c
        0x00102220:    e000        ..      B        0x102224 ; prvProcessReceivedCommands + 108
        0x00102222:    e7ff        ..      B        0x102224 ; prvProcessReceivedCommands + 108
        0x00102224:    a802        ..      ADD      r0,sp,#8
        0x00102226:    f000f8f1    ....    BL       prvSampleTimeNow ; 0x10240c
        0x0010222a:    9001        ..      STR      r0,[sp,#4]
        0x0010222c:    9804        ..      LDR      r0,[sp,#0x10]
        0x0010222e:    3801        .8      SUBS     r0,#1
        0x00102230:    2808        .(      CMP      r0,#8
        0x00102232:    d869        i.      BHI      0x102308 ; prvProcessReceivedCommands + 336
        0x00102234:    e8dff000    ....    TBB      [pc,r0]
    $d.51
        0x00102238:    3a320505    ..2:    DCD    976356613
        0x0010223c:    32050554    T..2    DCD    839189844
        0x00102240:    003a        :.      DCW    58
    $t.52
        0x00102242:    9803        ..      LDR      r0,[sp,#0xc]
        0x00102244:    f8901028    ..(.    LDRB     r1,[r0,#0x28]
        0x00102248:    f0410101    A...    ORR      r1,r1,#1
        0x0010224c:    f8801028    ..(.    STRB     r1,[r0,#0x28]
        0x00102250:    9803        ..      LDR      r0,[sp,#0xc]
        0x00102252:    9b05        ..      LDR      r3,[sp,#0x14]
        0x00102254:    6981        .i      LDR      r1,[r0,#0x18]
        0x00102256:    4419        .D      ADD      r1,r1,r3
        0x00102258:    9a01        ..      LDR      r2,[sp,#4]
        0x0010225a:    f7ffff2b    ..+.    BL       prvInsertTimerInActiveList ; 0x1020b4
        0x0010225e:    b1d8        ..      CBZ      r0,0x102298 ; prvProcessReceivedCommands + 224
        0x00102260:    e7ff        ..      B        0x102262 ; prvProcessReceivedCommands + 170
        0x00102262:    9803        ..      LDR      r0,[sp,#0xc]
        0x00102264:    f8900028    ..(.    LDRB     r0,[r0,#0x28]
        0x00102268:    0740        @.      LSLS     r0,r0,#29
        0x0010226a:    2800        .(      CMP      r0,#0
        0x0010226c:    d508        ..      BPL      0x102280 ; prvProcessReceivedCommands + 200
        0x0010226e:    e7ff        ..      B        0x102270 ; prvProcessReceivedCommands + 184
        0x00102270:    9803        ..      LDR      r0,[sp,#0xc]
        0x00102272:    9905        ..      LDR      r1,[sp,#0x14]
        0x00102274:    6982        .i      LDR      r2,[r0,#0x18]
        0x00102276:    4411        .D      ADD      r1,r1,r2
        0x00102278:    9a01        ..      LDR      r2,[sp,#4]
        0x0010227a:    f000f88f    ....    BL       prvReloadTimer ; 0x10239c
        0x0010227e:    e007        ..      B        0x102290 ; prvProcessReceivedCommands + 216
        0x00102280:    9803        ..      LDR      r0,[sp,#0xc]
        0x00102282:    f8901028    ..(.    LDRB     r1,[r0,#0x28]
        0x00102286:    f00101fe    ....    AND      r1,r1,#0xfe
        0x0010228a:    f8801028    ..(.    STRB     r1,[r0,#0x28]
        0x0010228e:    e7ff        ..      B        0x102290 ; prvProcessReceivedCommands + 216
        0x00102290:    9803        ..      LDR      r0,[sp,#0xc]
        0x00102292:    6a01        .j      LDR      r1,[r0,#0x20]
        0x00102294:    4788        .G      BLX      r1
        0x00102296:    e000        ..      B        0x10229a ; prvProcessReceivedCommands + 226
        0x00102298:    e7ff        ..      B        0x10229a ; prvProcessReceivedCommands + 226
        0x0010229a:    e036        6.      B        0x10230a ; prvProcessReceivedCommands + 338
        0x0010229c:    9803        ..      LDR      r0,[sp,#0xc]
        0x0010229e:    f8901028    ..(.    LDRB     r1,[r0,#0x28]
        0x001022a2:    f00101fe    ....    AND      r1,r1,#0xfe
        0x001022a6:    f8801028    ..(.    STRB     r1,[r0,#0x28]
        0x001022aa:    e02e        ..      B        0x10230a ; prvProcessReceivedCommands + 338
        0x001022ac:    9803        ..      LDR      r0,[sp,#0xc]
        0x001022ae:    f8901028    ..(.    LDRB     r1,[r0,#0x28]
        0x001022b2:    f0410101    A...    ORR      r1,r1,#1
        0x001022b6:    f8801028    ..(.    STRB     r1,[r0,#0x28]
        0x001022ba:    9805        ..      LDR      r0,[sp,#0x14]
        0x001022bc:    9903        ..      LDR      r1,[sp,#0xc]
        0x001022be:    6188        .a      STR      r0,[r1,#0x18]
        0x001022c0:    9803        ..      LDR      r0,[sp,#0xc]
        0x001022c2:    6980        .i      LDR      r0,[r0,#0x18]
        0x001022c4:    b920         .      CBNZ     r0,0x1022d0 ; prvProcessReceivedCommands + 280
        0x001022c6:    e7ff        ..      B        0x1022c8 ; prvProcessReceivedCommands + 272
        0x001022c8:    f000fb5c    ..\.    BL       ulSetInterruptMask ; 0x102984
        0x001022cc:    e7ff        ..      B        0x1022ce ; prvProcessReceivedCommands + 278
        0x001022ce:    e7fe        ..      B        0x1022ce ; prvProcessReceivedCommands + 278
        0x001022d0:    9803        ..      LDR      r0,[sp,#0xc]
        0x001022d2:    9a01        ..      LDR      r2,[sp,#4]
        0x001022d4:    6981        .i      LDR      r1,[r0,#0x18]
        0x001022d6:    4411        .D      ADD      r1,r1,r2
        0x001022d8:    4613        .F      MOV      r3,r2
        0x001022da:    f7fffeeb    ....    BL       prvInsertTimerInActiveList ; 0x1020b4
        0x001022de:    e014        ..      B        0x10230a ; prvProcessReceivedCommands + 338
        0x001022e0:    9803        ..      LDR      r0,[sp,#0xc]
        0x001022e2:    f8900028    ..(.    LDRB     r0,[r0,#0x28]
        0x001022e6:    0780        ..      LSLS     r0,r0,#30
        0x001022e8:    2800        .(      CMP      r0,#0
        0x001022ea:    d404        ..      BMI      0x1022f6 ; prvProcessReceivedCommands + 318
        0x001022ec:    e7ff        ..      B        0x1022ee ; prvProcessReceivedCommands + 310
        0x001022ee:    9803        ..      LDR      r0,[sp,#0xc]
        0x001022f0:    f000fcc0    ....    BL       vPortFree ; 0x102c74
        0x001022f4:    e007        ..      B        0x102306 ; prvProcessReceivedCommands + 334
        0x001022f6:    9803        ..      LDR      r0,[sp,#0xc]
        0x001022f8:    f8901028    ..(.    LDRB     r1,[r0,#0x28]
        0x001022fc:    f00101fe    ....    AND      r1,r1,#0xfe
        0x00102300:    f8801028    ..(.    STRB     r1,[r0,#0x28]
        0x00102304:    e7ff        ..      B        0x102306 ; prvProcessReceivedCommands + 334
        0x00102306:    e000        ..      B        0x10230a ; prvProcessReceivedCommands + 338
        0x00102308:    e7ff        ..      B        0x10230a ; prvProcessReceivedCommands + 338
        0x0010230a:    e7ff        ..      B        0x10230c ; prvProcessReceivedCommands + 340
        0x0010230c:    e757        W.      B        0x1021be ; prvProcessReceivedCommands + 6
        0x0010230e:    b008        ..      ADD      sp,sp,#0x20
        0x00102310:    bd80        ..      POP      {r7,pc}
        0x00102312:    0000        ..      MOVS     r0,r0
    prvProcessTimerOrBlockTask
        0x00102314:    b580        ..      PUSH     {r7,lr}
        0x00102316:    b084        ..      SUB      sp,sp,#0x10
        0x00102318:    9003        ..      STR      r0,[sp,#0xc]
        0x0010231a:    9102        ..      STR      r1,[sp,#8]
        0x0010231c:    f000ff60    ..`.    BL       vTaskSuspendAll ; 0x1031e0
        0x00102320:    4668        hF      MOV      r0,sp
        0x00102322:    f000f873    ..s.    BL       prvSampleTimeNow ; 0x10240c
        0x00102326:    9001        ..      STR      r0,[sp,#4]
        0x00102328:    9800        ..      LDR      r0,[sp,#0]
        0x0010232a:    bb90        ..      CBNZ     r0,0x102392 ; prvProcessTimerOrBlockTask + 126
        0x0010232c:    e7ff        ..      B        0x10232e ; prvProcessTimerOrBlockTask + 26
        0x0010232e:    9802        ..      LDR      r0,[sp,#8]
        0x00102330:    b960        `.      CBNZ     r0,0x10234c ; prvProcessTimerOrBlockTask + 56
        0x00102332:    e7ff        ..      B        0x102334 ; prvProcessTimerOrBlockTask + 32
        0x00102334:    9803        ..      LDR      r0,[sp,#0xc]
        0x00102336:    9901        ..      LDR      r1,[sp,#4]
        0x00102338:    4288        .B      CMP      r0,r1
        0x0010233a:    d807        ..      BHI      0x10234c ; prvProcessTimerOrBlockTask + 56
        0x0010233c:    e7ff        ..      B        0x10233e ; prvProcessTimerOrBlockTask + 42
        0x0010233e:    f001fcbd    ....    BL       xTaskResumeAll ; 0x103cbc
        0x00102342:    9803        ..      LDR      r0,[sp,#0xc]
        0x00102344:    9901        ..      LDR      r1,[sp,#4]
        0x00102346:    f7ffff0d    ....    BL       prvProcessExpiredTimer ; 0x102164
        0x0010234a:    e021        !.      B        0x102390 ; prvProcessTimerOrBlockTask + 124
        0x0010234c:    9802        ..      LDR      r0,[sp,#8]
        0x0010234e:    b158        X.      CBZ      r0,0x102368 ; prvProcessTimerOrBlockTask + 84
        0x00102350:    e7ff        ..      B        0x102352 ; prvProcessTimerOrBlockTask + 62
        0x00102352:    f2402070    @.p     MOVW     r0,#0x270
        0x00102356:    f2c20010    ....    MOVT     r0,#0x2010
        0x0010235a:    6800        .h      LDR      r0,[r0,#0]
        0x0010235c:    6800        .h      LDR      r0,[r0,#0]
        0x0010235e:    fab0f080    ....    CLZ      r0,r0
        0x00102362:    0940        @.      LSRS     r0,r0,#5
        0x00102364:    9002        ..      STR      r0,[sp,#8]
        0x00102366:    e7ff        ..      B        0x102368 ; prvProcessTimerOrBlockTask + 84
        0x00102368:    f2402068    @.h     MOVW     r0,#0x268
        0x0010236c:    f2c20010    ....    MOVT     r0,#0x2010
        0x00102370:    6800        .h      LDR      r0,[r0,#0]
        0x00102372:    9903        ..      LDR      r1,[sp,#0xc]
        0x00102374:    9a01        ..      LDR      r2,[sp,#4]
        0x00102376:    1a89        ..      SUBS     r1,r1,r2
        0x00102378:    9a02        ..      LDR      r2,[sp,#8]
        0x0010237a:    f000fd5f    .._.    BL       vQueueWaitForMessageRestricted ; 0x102e3c
        0x0010237e:    f001fc9d    ....    BL       xTaskResumeAll ; 0x103cbc
        0x00102382:    b918        ..      CBNZ     r0,0x10238c ; prvProcessTimerOrBlockTask + 120
        0x00102384:    e7ff        ..      B        0x102386 ; prvProcessTimerOrBlockTask + 114
        0x00102386:    f000fd4d    ..M.    BL       vPortYield ; 0x102e24
        0x0010238a:    e000        ..      B        0x10238e ; prvProcessTimerOrBlockTask + 122
        0x0010238c:    e7ff        ..      B        0x10238e ; prvProcessTimerOrBlockTask + 122
        0x0010238e:    e7ff        ..      B        0x102390 ; prvProcessTimerOrBlockTask + 124
        0x00102390:    e002        ..      B        0x102398 ; prvProcessTimerOrBlockTask + 132
        0x00102392:    f001fc93    ....    BL       xTaskResumeAll ; 0x103cbc
        0x00102396:    e7ff        ..      B        0x102398 ; prvProcessTimerOrBlockTask + 132
        0x00102398:    b004        ..      ADD      sp,sp,#0x10
        0x0010239a:    bd80        ..      POP      {r7,pc}
    prvReloadTimer
        0x0010239c:    b580        ..      PUSH     {r7,lr}
        0x0010239e:    b084        ..      SUB      sp,sp,#0x10
        0x001023a0:    9003        ..      STR      r0,[sp,#0xc]
        0x001023a2:    9102        ..      STR      r1,[sp,#8]
        0x001023a4:    9201        ..      STR      r2,[sp,#4]
        0x001023a6:    e7ff        ..      B        0x1023a8 ; prvReloadTimer + 12
        0x001023a8:    9803        ..      LDR      r0,[sp,#0xc]
        0x001023aa:    9b02        ..      LDR      r3,[sp,#8]
        0x001023ac:    6981        .i      LDR      r1,[r0,#0x18]
        0x001023ae:    4419        .D      ADD      r1,r1,r3
        0x001023b0:    9a01        ..      LDR      r2,[sp,#4]
        0x001023b2:    f7fffe7f    ....    BL       prvInsertTimerInActiveList ; 0x1020b4
        0x001023b6:    b148        H.      CBZ      r0,0x1023cc ; prvReloadTimer + 48
        0x001023b8:    e7ff        ..      B        0x1023ba ; prvReloadTimer + 30
        0x001023ba:    9803        ..      LDR      r0,[sp,#0xc]
        0x001023bc:    6980        .i      LDR      r0,[r0,#0x18]
        0x001023be:    9902        ..      LDR      r1,[sp,#8]
        0x001023c0:    4408        .D      ADD      r0,r0,r1
        0x001023c2:    9002        ..      STR      r0,[sp,#8]
        0x001023c4:    9803        ..      LDR      r0,[sp,#0xc]
        0x001023c6:    6a01        .j      LDR      r1,[r0,#0x20]
        0x001023c8:    4788        .G      BLX      r1
        0x001023ca:    e7ed        ..      B        0x1023a8 ; prvReloadTimer + 12
        0x001023cc:    b004        ..      ADD      sp,sp,#0x10
        0x001023ce:    bd80        ..      POP      {r7,pc}
    prvResetNextTaskUnblockTime
        0x001023d0:    f2402048    @.H     MOVW     r0,#0x248
        0x001023d4:    f2c20010    ....    MOVT     r0,#0x2010
        0x001023d8:    6800        .h      LDR      r0,[r0,#0]
        0x001023da:    6800        .h      LDR      r0,[r0,#0]
        0x001023dc:    b940        @.      CBNZ     r0,0x1023f0 ; prvResetNextTaskUnblockTime + 32
        0x001023de:    e7ff        ..      B        0x1023e0 ; prvResetNextTaskUnblockTime + 16
        0x001023e0:    f2402054    @.T     MOVW     r0,#0x254
        0x001023e4:    f2c20010    ....    MOVT     r0,#0x2010
        0x001023e8:    f04f31ff    O..1    MOV      r1,#0xffffffff
        0x001023ec:    6001        .`      STR      r1,[r0,#0]
        0x001023ee:    e00c        ..      B        0x10240a ; prvResetNextTaskUnblockTime + 58
        0x001023f0:    f2402048    @.H     MOVW     r0,#0x248
        0x001023f4:    f2c20010    ....    MOVT     r0,#0x2010
        0x001023f8:    6800        .h      LDR      r0,[r0,#0]
        0x001023fa:    68c0        .h      LDR      r0,[r0,#0xc]
        0x001023fc:    6800        .h      LDR      r0,[r0,#0]
        0x001023fe:    f2402154    @.T!    MOVW     r1,#0x254
        0x00102402:    f2c20110    ....    MOVT     r1,#0x2010
        0x00102406:    6008        .`      STR      r0,[r1,#0]
        0x00102408:    e7ff        ..      B        0x10240a ; prvResetNextTaskUnblockTime + 58
        0x0010240a:    4770        pG      BX       lr
    prvSampleTimeNow
        0x0010240c:    b580        ..      PUSH     {r7,lr}
        0x0010240e:    b082        ..      SUB      sp,sp,#8
        0x00102410:    9001        ..      STR      r0,[sp,#4]
        0x00102412:    f001fa53    ..S.    BL       xTaskGetTickCount ; 0x1038bc
        0x00102416:    9000        ..      STR      r0,[sp,#0]
        0x00102418:    9800        ..      LDR      r0,[sp,#0]
        0x0010241a:    f2402178    @.x!    MOVW     r1,#0x278
        0x0010241e:    f2c20110    ....    MOVT     r1,#0x2010
        0x00102422:    6809        .h      LDR      r1,[r1,#0]
        0x00102424:    4288        .B      CMP      r0,r1
        0x00102426:    d206        ..      BCS      0x102436 ; prvSampleTimeNow + 42
        0x00102428:    e7ff        ..      B        0x10242a ; prvSampleTimeNow + 30
        0x0010242a:    f000f825    ..%.    BL       prvSwitchTimerLists ; 0x102478
        0x0010242e:    9801        ..      LDR      r0,[sp,#4]
        0x00102430:    2101        .!      MOVS     r1,#1
        0x00102432:    6001        .`      STR      r1,[r0,#0]
        0x00102434:    e003        ..      B        0x10243e ; prvSampleTimeNow + 50
        0x00102436:    9801        ..      LDR      r0,[sp,#4]
        0x00102438:    2100        .!      MOVS     r1,#0
        0x0010243a:    6001        .`      STR      r1,[r0,#0]
        0x0010243c:    e7ff        ..      B        0x10243e ; prvSampleTimeNow + 50
        0x0010243e:    9800        ..      LDR      r0,[sp,#0]
        0x00102440:    f2402178    @.x!    MOVW     r1,#0x278
        0x00102444:    f2c20110    ....    MOVT     r1,#0x2010
        0x00102448:    6008        .`      STR      r0,[r1,#0]
        0x0010244a:    9800        ..      LDR      r0,[sp,#0]
        0x0010244c:    b002        ..      ADD      sp,sp,#8
        0x0010244e:    bd80        ..      POP      {r7,pc}
    prvSetupFPU
        0x00102450:    b580        ..      PUSH     {r7,lr}
        0x00102452:    f701fe7d    ..}.    BL       SecureInit_EnableNSFPUAccess ; 0x4150
        0x00102456:    f64e5088    N..P    MOV      r0,#0xed88
        0x0010245a:    f2ce0000    ....    MOVT     r0,#0xe000
        0x0010245e:    6801        .h      LDR      r1,[r0,#0]
        0x00102460:    f4410170    A.p.    ORR      r1,r1,#0xf00000
        0x00102464:    6001        .`      STR      r1,[r0,#0]
        0x00102466:    f64e7034    N.4p    MOV      r0,#0xef34
        0x0010246a:    f2ce0000    ....    MOVT     r0,#0xe000
        0x0010246e:    6801        .h      LDR      r1,[r0,#0]
        0x00102470:    f0414140    A.@A    ORR      r1,r1,#0xc0000000
        0x00102474:    6001        .`      STR      r1,[r0,#0]
        0x00102476:    bd80        ..      POP      {r7,pc}
    prvSwitchTimerLists
        0x00102478:    b580        ..      PUSH     {r7,lr}
        0x0010247a:    b082        ..      SUB      sp,sp,#8
        0x0010247c:    e7ff        ..      B        0x10247e ; prvSwitchTimerLists + 6
        0x0010247e:    f2402074    @.t     MOVW     r0,#0x274
        0x00102482:    f2c20010    ....    MOVT     r0,#0x2010
        0x00102486:    6800        .h      LDR      r0,[r0,#0]
        0x00102488:    6800        .h      LDR      r0,[r0,#0]
        0x0010248a:    b170        p.      CBZ      r0,0x1024aa ; prvSwitchTimerLists + 50
        0x0010248c:    e7ff        ..      B        0x10248e ; prvSwitchTimerLists + 22
        0x0010248e:    f2402074    @.t     MOVW     r0,#0x274
        0x00102492:    f2c20010    ....    MOVT     r0,#0x2010
        0x00102496:    6800        .h      LDR      r0,[r0,#0]
        0x00102498:    68c0        .h      LDR      r0,[r0,#0xc]
        0x0010249a:    6800        .h      LDR      r0,[r0,#0]
        0x0010249c:    9001        ..      STR      r0,[sp,#4]
        0x0010249e:    9801        ..      LDR      r0,[sp,#4]
        0x001024a0:    f04f31ff    O..1    MOV      r1,#0xffffffff
        0x001024a4:    f7fffe5e    ..^.    BL       prvProcessExpiredTimer ; 0x102164
        0x001024a8:    e7e9        ..      B        0x10247e ; prvSwitchTimerLists + 6
        0x001024aa:    f2402074    @.t     MOVW     r0,#0x274
        0x001024ae:    f2c20010    ....    MOVT     r0,#0x2010
        0x001024b2:    6801        .h      LDR      r1,[r0,#0]
        0x001024b4:    9100        ..      STR      r1,[sp,#0]
        0x001024b6:    f2402170    @.p!    MOVW     r1,#0x270
        0x001024ba:    f2c20110    ....    MOVT     r1,#0x2010
        0x001024be:    680a        .h      LDR      r2,[r1,#0]
        0x001024c0:    6002        .`      STR      r2,[r0,#0]
        0x001024c2:    9800        ..      LDR      r0,[sp,#0]
        0x001024c4:    6008        .`      STR      r0,[r1,#0]
        0x001024c6:    b002        ..      ADD      sp,sp,#8
        0x001024c8:    bd80        ..      POP      {r7,pc}
        0x001024ca:    0000        ..      MOVS     r0,r0
    prvTaskExitError
        0x001024cc:    b580        ..      PUSH     {r7,lr}
        0x001024ce:    b082        ..      SUB      sp,sp,#8
        0x001024d0:    2000        .       MOVS     r0,#0
        0x001024d2:    9001        ..      STR      r0,[sp,#4]
        0x001024d4:    f2400000    @...    MOVW     r0,#0
        0x001024d8:    f2c20010    ....    MOVT     r0,#0x2010
        0x001024dc:    6800        .h      LDR      r0,[r0,#0]
        0x001024de:    3001        .0      ADDS     r0,#1
        0x001024e0:    b120         .      CBZ      r0,0x1024ec ; prvTaskExitError + 32
        0x001024e2:    e7ff        ..      B        0x1024e4 ; prvTaskExitError + 24
        0x001024e4:    f000fa4e    ..N.    BL       ulSetInterruptMask ; 0x102984
        0x001024e8:    e7ff        ..      B        0x1024ea ; prvTaskExitError + 30
        0x001024ea:    e7fe        ..      B        0x1024ea ; prvTaskExitError + 30
        0x001024ec:    f000fa4a    ..J.    BL       ulSetInterruptMask ; 0x102984
        0x001024f0:    e7ff        ..      B        0x1024f2 ; prvTaskExitError + 38
        0x001024f2:    9801        ..      LDR      r0,[sp,#4]
        0x001024f4:    b908        ..      CBNZ     r0,0x1024fa ; prvTaskExitError + 46
        0x001024f6:    e7ff        ..      B        0x1024f8 ; prvTaskExitError + 44
        0x001024f8:    e7fb        ..      B        0x1024f2 ; prvTaskExitError + 38
        0x001024fa:    b002        ..      ADD      sp,sp,#8
        0x001024fc:    bd80        ..      POP      {r7,pc}
        0x001024fe:    0000        ..      MOVS     r0,r0
    prvTimerTask
        0x00102500:    b084        ..      SUB      sp,sp,#0x10
        0x00102502:    9003        ..      STR      r0,[sp,#0xc]
        0x00102504:    e7ff        ..      B        0x102506 ; prvTimerTask + 6
        0x00102506:    a801        ..      ADD      r0,sp,#4
        0x00102508:    f7fffbdc    ....    BL       prvGetNextExpireTime ; 0x101cc4
        0x0010250c:    9002        ..      STR      r0,[sp,#8]
        0x0010250e:    9802        ..      LDR      r0,[sp,#8]
        0x00102510:    9901        ..      LDR      r1,[sp,#4]
        0x00102512:    f7fffeff    ....    BL       prvProcessTimerOrBlockTask ; 0x102314
        0x00102516:    f7fffe4f    ..O.    BL       prvProcessReceivedCommands ; 0x1021b8
        0x0010251a:    e7f4        ..      B        0x102506 ; prvTimerTask + 6
    prvUnlockQueue
        0x0010251c:    b580        ..      PUSH     {r7,lr}
        0x0010251e:    b082        ..      SUB      sp,sp,#8
        0x00102520:    9001        ..      STR      r0,[sp,#4]
        0x00102522:    f000fb7b    ..{.    BL       vPortEnterCritical ; 0x102c1c
        0x00102526:    9801        ..      LDR      r0,[sp,#4]
        0x00102528:    f8900045    ..E.    LDRB     r0,[r0,#0x45]
        0x0010252c:    f88d0003    ....    STRB     r0,[sp,#3]
        0x00102530:    e7ff        ..      B        0x102532 ; prvUnlockQueue + 22
        0x00102532:    f99d0003    ....    LDRSB    r0,[sp,#3]
        0x00102536:    2801        .(      CMP      r0,#1
        0x00102538:    db16        ..      BLT      0x102568 ; prvUnlockQueue + 76
        0x0010253a:    e7ff        ..      B        0x10253c ; prvUnlockQueue + 32
        0x0010253c:    9801        ..      LDR      r0,[sp,#4]
        0x0010253e:    6a40        @j      LDR      r0,[r0,#0x24]
        0x00102540:    b158        X.      CBZ      r0,0x10255a ; prvUnlockQueue + 62
        0x00102542:    e7ff        ..      B        0x102544 ; prvUnlockQueue + 40
        0x00102544:    9801        ..      LDR      r0,[sp,#4]
        0x00102546:    3024        $0      ADDS     r0,r0,#0x24
        0x00102548:    f001faf2    ....    BL       xTaskRemoveFromEventList ; 0x103b30
        0x0010254c:    b118        ..      CBZ      r0,0x102556 ; prvUnlockQueue + 58
        0x0010254e:    e7ff        ..      B        0x102550 ; prvUnlockQueue + 52
        0x00102550:    f000fd8c    ....    BL       vTaskMissedYield ; 0x10306c
        0x00102554:    e000        ..      B        0x102558 ; prvUnlockQueue + 60
        0x00102556:    e7ff        ..      B        0x102558 ; prvUnlockQueue + 60
        0x00102558:    e000        ..      B        0x10255c ; prvUnlockQueue + 64
        0x0010255a:    e006        ..      B        0x10256a ; prvUnlockQueue + 78
        0x0010255c:    f89d0003    ....    LDRB     r0,[sp,#3]
        0x00102560:    3801        .8      SUBS     r0,#1
        0x00102562:    f88d0003    ....    STRB     r0,[sp,#3]
        0x00102566:    e7e4        ..      B        0x102532 ; prvUnlockQueue + 22
        0x00102568:    e7ff        ..      B        0x10256a ; prvUnlockQueue + 78
        0x0010256a:    9801        ..      LDR      r0,[sp,#4]
        0x0010256c:    21ff        .!      MOVS     r1,#0xff
        0x0010256e:    f8801045    ..E.    STRB     r1,[r0,#0x45]
        0x00102572:    f000fb63    ..c.    BL       vPortExitCritical ; 0x102c3c
        0x00102576:    f000fb51    ..Q.    BL       vPortEnterCritical ; 0x102c1c
        0x0010257a:    9801        ..      LDR      r0,[sp,#4]
        0x0010257c:    f8900044    ..D.    LDRB     r0,[r0,#0x44]
        0x00102580:    f88d0002    ....    STRB     r0,[sp,#2]
        0x00102584:    e7ff        ..      B        0x102586 ; prvUnlockQueue + 106
        0x00102586:    f99d0002    ....    LDRSB    r0,[sp,#2]
        0x0010258a:    2801        .(      CMP      r0,#1
        0x0010258c:    db16        ..      BLT      0x1025bc ; prvUnlockQueue + 160
        0x0010258e:    e7ff        ..      B        0x102590 ; prvUnlockQueue + 116
        0x00102590:    9801        ..      LDR      r0,[sp,#4]
        0x00102592:    6900        .i      LDR      r0,[r0,#0x10]
        0x00102594:    b180        ..      CBZ      r0,0x1025b8 ; prvUnlockQueue + 156
        0x00102596:    e7ff        ..      B        0x102598 ; prvUnlockQueue + 124
        0x00102598:    9801        ..      LDR      r0,[sp,#4]
        0x0010259a:    3010        .0      ADDS     r0,r0,#0x10
        0x0010259c:    f001fac8    ....    BL       xTaskRemoveFromEventList ; 0x103b30
        0x001025a0:    b118        ..      CBZ      r0,0x1025aa ; prvUnlockQueue + 142
        0x001025a2:    e7ff        ..      B        0x1025a4 ; prvUnlockQueue + 136
        0x001025a4:    f000fd62    ..b.    BL       vTaskMissedYield ; 0x10306c
        0x001025a8:    e000        ..      B        0x1025ac ; prvUnlockQueue + 144
        0x001025aa:    e7ff        ..      B        0x1025ac ; prvUnlockQueue + 144
        0x001025ac:    f89d0002    ....    LDRB     r0,[sp,#2]
        0x001025b0:    3801        .8      SUBS     r0,#1
        0x001025b2:    f88d0002    ....    STRB     r0,[sp,#2]
        0x001025b6:    e000        ..      B        0x1025ba ; prvUnlockQueue + 158
        0x001025b8:    e001        ..      B        0x1025be ; prvUnlockQueue + 162
        0x001025ba:    e7e4        ..      B        0x102586 ; prvUnlockQueue + 106
        0x001025bc:    e7ff        ..      B        0x1025be ; prvUnlockQueue + 162
        0x001025be:    9801        ..      LDR      r0,[sp,#4]
        0x001025c0:    21ff        .!      MOVS     r1,#0xff
        0x001025c2:    f8801044    ..D.    STRB     r1,[r0,#0x44]
        0x001025c6:    f000fb39    ..9.    BL       vPortExitCritical ; 0x102c3c
        0x001025ca:    b002        ..      ADD      sp,sp,#8
        0x001025cc:    bd80        ..      POP      {r7,pc}
        0x001025ce:    0000        ..      MOVS     r0,r0
    pvPortMalloc
        0x001025d0:    b580        ..      PUSH     {r7,lr}
        0x001025d2:    b086        ..      SUB      sp,sp,#0x18
        0x001025d4:    9005        ..      STR      r0,[sp,#0x14]
        0x001025d6:    2000        .       MOVS     r0,#0
        0x001025d8:    9001        ..      STR      r0,[sp,#4]
        0x001025da:    f000fe01    ....    BL       vTaskSuspendAll ; 0x1031e0
        0x001025de:    f6400020    @. .    MOVW     r0,#0x820
        0x001025e2:    f2c20010    ....    MOVT     r0,#0x2010
        0x001025e6:    6800        .h      LDR      r0,[r0,#0]
        0x001025e8:    b918        ..      CBNZ     r0,0x1025f2 ; pvPortMalloc + 34
        0x001025ea:    e7ff        ..      B        0x1025ec ; pvPortMalloc + 28
        0x001025ec:    f7fffb8a    ....    BL       prvHeapInit ; 0x101d04
        0x001025f0:    e000        ..      B        0x1025f4 ; pvPortMalloc + 36
        0x001025f2:    e7ff        ..      B        0x1025f4 ; pvPortMalloc + 36
        0x001025f4:    9805        ..      LDR      r0,[sp,#0x14]
        0x001025f6:    f6400124    @.$.    MOV      r1,#0x824
        0x001025fa:    f2c20110    ....    MOVT     r1,#0x2010
        0x001025fe:    7809        .x      LDRB     r1,[r1,#0]
        0x00102600:    2900        .)      CMP      r1,#0
        0x00102602:    bf18        ..      IT       NE
        0x00102604:    f04f4100    O..A    MOVNE    r1,#0x80000000
        0x00102608:    4208        .B      TST      r0,r1
        0x0010260a:    f04080cb    @...    BNE.W    0x1027a4 ; pvPortMalloc + 468
        0x0010260e:    e7ff        ..      B        0x102610 ; pvPortMalloc + 64
        0x00102610:    9805        ..      LDR      r0,[sp,#0x14]
        0x00102612:    b350        P.      CBZ      r0,0x10266a ; pvPortMalloc + 154
        0x00102614:    e7ff        ..      B        0x102616 ; pvPortMalloc + 70
        0x00102616:    9805        ..      LDR      r0,[sp,#0x14]
        0x00102618:    f1000108    ....    ADD      r1,r0,#8
        0x0010261c:    4281        .B      CMP      r1,r0
        0x0010261e:    d924        $.      BLS      0x10266a ; pvPortMalloc + 154
        0x00102620:    e7ff        ..      B        0x102622 ; pvPortMalloc + 82
        0x00102622:    9805        ..      LDR      r0,[sp,#0x14]
        0x00102624:    3008        .0      ADDS     r0,r0,#8
        0x00102626:    9005        ..      STR      r0,[sp,#0x14]
        0x00102628:    f89d0014    ....    LDRB     r0,[sp,#0x14]
        0x0010262c:    0740        @.      LSLS     r0,r0,#29
        0x0010262e:    b1d0        ..      CBZ      r0,0x102666 ; pvPortMalloc + 150
        0x00102630:    e7ff        ..      B        0x102632 ; pvPortMalloc + 98
        0x00102632:    9805        ..      LDR      r0,[sp,#0x14]
        0x00102634:    f0200107     ...    BIC      r1,r0,#7
        0x00102638:    3108        .1      ADDS     r1,r1,#8
        0x0010263a:    4281        .B      CMP      r1,r0
        0x0010263c:    d90f        ..      BLS      0x10265e ; pvPortMalloc + 142
        0x0010263e:    e7ff        ..      B        0x102640 ; pvPortMalloc + 112
        0x00102640:    9805        ..      LDR      r0,[sp,#0x14]
        0x00102642:    f0200007     ...    BIC      r0,r0,#7
        0x00102646:    3008        .0      ADDS     r0,r0,#8
        0x00102648:    9005        ..      STR      r0,[sp,#0x14]
        0x0010264a:    f89d0014    ....    LDRB     r0,[sp,#0x14]
        0x0010264e:    0740        @.      LSLS     r0,r0,#29
        0x00102650:    b120         .      CBZ      r0,0x10265c ; pvPortMalloc + 140
        0x00102652:    e7ff        ..      B        0x102654 ; pvPortMalloc + 132
        0x00102654:    f000f996    ....    BL       ulSetInterruptMask ; 0x102984
        0x00102658:    e7ff        ..      B        0x10265a ; pvPortMalloc + 138
        0x0010265a:    e7fe        ..      B        0x10265a ; pvPortMalloc + 138
        0x0010265c:    e002        ..      B        0x102664 ; pvPortMalloc + 148
        0x0010265e:    2000        .       MOVS     r0,#0
        0x00102660:    9005        ..      STR      r0,[sp,#0x14]
        0x00102662:    e7ff        ..      B        0x102664 ; pvPortMalloc + 148
        0x00102664:    e000        ..      B        0x102668 ; pvPortMalloc + 152
        0x00102666:    e7ff        ..      B        0x102668 ; pvPortMalloc + 152
        0x00102668:    e002        ..      B        0x102670 ; pvPortMalloc + 160
        0x0010266a:    2000        .       MOVS     r0,#0
        0x0010266c:    9005        ..      STR      r0,[sp,#0x14]
        0x0010266e:    e7ff        ..      B        0x102670 ; pvPortMalloc + 160
        0x00102670:    9805        ..      LDR      r0,[sp,#0x14]
        0x00102672:    2800        .(      CMP      r0,#0
        0x00102674:    f0008094    ....    BEQ.W    0x1027a0 ; pvPortMalloc + 464
        0x00102678:    e7ff        ..      B        0x10267a ; pvPortMalloc + 170
        0x0010267a:    9805        ..      LDR      r0,[sp,#0x14]
        0x0010267c:    f6400128    @.(.    MOV      r1,#0x828
        0x00102680:    f2c20110    ....    MOVT     r1,#0x2010
        0x00102684:    6809        .h      LDR      r1,[r1,#0]
        0x00102686:    4288        .B      CMP      r0,r1
        0x00102688:    f200808a    ....    BHI.W    0x1027a0 ; pvPortMalloc + 464
        0x0010268c:    e7ff        ..      B        0x10268e ; pvPortMalloc + 190
        0x0010268e:    f640002c    @.,.    MOV      r0,#0x82c
        0x00102692:    f2c20010    ....    MOVT     r0,#0x2010
        0x00102696:    9003        ..      STR      r0,[sp,#0xc]
        0x00102698:    6800        .h      LDR      r0,[r0,#0]
        0x0010269a:    9004        ..      STR      r0,[sp,#0x10]
        0x0010269c:    e7ff        ..      B        0x10269e ; pvPortMalloc + 206
        0x0010269e:    9804        ..      LDR      r0,[sp,#0x10]
        0x001026a0:    6841        Ah      LDR      r1,[r0,#4]
        0x001026a2:    9a05        ..      LDR      r2,[sp,#0x14]
        0x001026a4:    2000        .       MOVS     r0,#0
        0x001026a6:    4291        .B      CMP      r1,r2
        0x001026a8:    d206        ..      BCS      0x1026b8 ; pvPortMalloc + 232
        0x001026aa:    e7ff        ..      B        0x1026ac ; pvPortMalloc + 220
        0x001026ac:    9804        ..      LDR      r0,[sp,#0x10]
        0x001026ae:    6800        .h      LDR      r0,[r0,#0]
        0x001026b0:    2800        .(      CMP      r0,#0
        0x001026b2:    bf18        ..      IT       NE
        0x001026b4:    2001        .       MOVNE    r0,#1
        0x001026b6:    e7ff        ..      B        0x1026b8 ; pvPortMalloc + 232
        0x001026b8:    07c0        ..      LSLS     r0,r0,#31
        0x001026ba:    b130        0.      CBZ      r0,0x1026ca ; pvPortMalloc + 250
        0x001026bc:    e7ff        ..      B        0x1026be ; pvPortMalloc + 238
        0x001026be:    9804        ..      LDR      r0,[sp,#0x10]
        0x001026c0:    9003        ..      STR      r0,[sp,#0xc]
        0x001026c2:    9804        ..      LDR      r0,[sp,#0x10]
        0x001026c4:    6800        .h      LDR      r0,[r0,#0]
        0x001026c6:    9004        ..      STR      r0,[sp,#0x10]
        0x001026c8:    e7e9        ..      B        0x10269e ; pvPortMalloc + 206
        0x001026ca:    9804        ..      LDR      r0,[sp,#0x10]
        0x001026cc:    f6400120    @. .    MOVW     r1,#0x820
        0x001026d0:    f2c20110    ....    MOVT     r1,#0x2010
        0x001026d4:    6809        .h      LDR      r1,[r1,#0]
        0x001026d6:    4288        .B      CMP      r0,r1
        0x001026d8:    d060        `.      BEQ      0x10279c ; pvPortMalloc + 460
        0x001026da:    e7ff        ..      B        0x1026dc ; pvPortMalloc + 268
        0x001026dc:    9803        ..      LDR      r0,[sp,#0xc]
        0x001026de:    6800        .h      LDR      r0,[r0,#0]
        0x001026e0:    3008        .0      ADDS     r0,r0,#8
        0x001026e2:    9001        ..      STR      r0,[sp,#4]
        0x001026e4:    9804        ..      LDR      r0,[sp,#0x10]
        0x001026e6:    6800        .h      LDR      r0,[r0,#0]
        0x001026e8:    9903        ..      LDR      r1,[sp,#0xc]
        0x001026ea:    6008        .`      STR      r0,[r1,#0]
        0x001026ec:    9804        ..      LDR      r0,[sp,#0x10]
        0x001026ee:    6840        @h      LDR      r0,[r0,#4]
        0x001026f0:    9905        ..      LDR      r1,[sp,#0x14]
        0x001026f2:    1a40        @.      SUBS     r0,r0,r1
        0x001026f4:    2811        .(      CMP      r0,#0x11
        0x001026f6:    d31a        ..      BCC      0x10272e ; pvPortMalloc + 350
        0x001026f8:    e7ff        ..      B        0x1026fa ; pvPortMalloc + 298
        0x001026fa:    9804        ..      LDR      r0,[sp,#0x10]
        0x001026fc:    9905        ..      LDR      r1,[sp,#0x14]
        0x001026fe:    4408        .D      ADD      r0,r0,r1
        0x00102700:    9002        ..      STR      r0,[sp,#8]
        0x00102702:    f89d0008    ....    LDRB     r0,[sp,#8]
        0x00102706:    0740        @.      LSLS     r0,r0,#29
        0x00102708:    b120         .      CBZ      r0,0x102714 ; pvPortMalloc + 324
        0x0010270a:    e7ff        ..      B        0x10270c ; pvPortMalloc + 316
        0x0010270c:    f000f93a    ..:.    BL       ulSetInterruptMask ; 0x102984
        0x00102710:    e7ff        ..      B        0x102712 ; pvPortMalloc + 322
        0x00102712:    e7fe        ..      B        0x102712 ; pvPortMalloc + 322
        0x00102714:    9804        ..      LDR      r0,[sp,#0x10]
        0x00102716:    6840        @h      LDR      r0,[r0,#4]
        0x00102718:    9905        ..      LDR      r1,[sp,#0x14]
        0x0010271a:    1a40        @.      SUBS     r0,r0,r1
        0x0010271c:    9902        ..      LDR      r1,[sp,#8]
        0x0010271e:    6048        H`      STR      r0,[r1,#4]
        0x00102720:    9805        ..      LDR      r0,[sp,#0x14]
        0x00102722:    9904        ..      LDR      r1,[sp,#0x10]
        0x00102724:    6048        H`      STR      r0,[r1,#4]
        0x00102726:    9802        ..      LDR      r0,[sp,#8]
        0x00102728:    f7fffc60    ..`.    BL       prvInsertBlockIntoFreeList ; 0x101fec
        0x0010272c:    e000        ..      B        0x102730 ; pvPortMalloc + 352
        0x0010272e:    e7ff        ..      B        0x102730 ; pvPortMalloc + 352
        0x00102730:    9804        ..      LDR      r0,[sp,#0x10]
        0x00102732:    6840        @h      LDR      r0,[r0,#4]
        0x00102734:    f6400128    @.(.    MOV      r1,#0x828
        0x00102738:    f2c20110    ....    MOVT     r1,#0x2010
        0x0010273c:    680a        .h      LDR      r2,[r1,#0]
        0x0010273e:    1a10        ..      SUBS     r0,r2,r0
        0x00102740:    6008        .`      STR      r0,[r1,#0]
        0x00102742:    6808        .h      LDR      r0,[r1,#0]
        0x00102744:    f6400134    @.4.    MOV      r1,#0x834
        0x00102748:    f2c20110    ....    MOVT     r1,#0x2010
        0x0010274c:    6809        .h      LDR      r1,[r1,#0]
        0x0010274e:    4288        .B      CMP      r0,r1
        0x00102750:    d20b        ..      BCS      0x10276a ; pvPortMalloc + 410
        0x00102752:    e7ff        ..      B        0x102754 ; pvPortMalloc + 388
        0x00102754:    f6400028    @.(.    MOV      r0,#0x828
        0x00102758:    f2c20010    ....    MOVT     r0,#0x2010
        0x0010275c:    6800        .h      LDR      r0,[r0,#0]
        0x0010275e:    f6400134    @.4.    MOV      r1,#0x834
        0x00102762:    f2c20110    ....    MOVT     r1,#0x2010
        0x00102766:    6008        .`      STR      r0,[r1,#0]
        0x00102768:    e000        ..      B        0x10276c ; pvPortMalloc + 412
        0x0010276a:    e7ff        ..      B        0x10276c ; pvPortMalloc + 412
        0x0010276c:    f6400024    @.$.    MOV      r0,#0x824
        0x00102770:    f2c20010    ....    MOVT     r0,#0x2010
        0x00102774:    7800        .x      LDRB     r0,[r0,#0]
        0x00102776:    9904        ..      LDR      r1,[sp,#0x10]
        0x00102778:    684a        Jh      LDR      r2,[r1,#4]
        0x0010277a:    f0424300    B..C    ORR      r3,r2,#0x80000000
        0x0010277e:    2800        .(      CMP      r0,#0
        0x00102780:    bf18        ..      IT       NE
        0x00102782:    461a        .F      MOVNE    r2,r3
        0x00102784:    604a        J`      STR      r2,[r1,#4]
        0x00102786:    9804        ..      LDR      r0,[sp,#0x10]
        0x00102788:    2100        .!      MOVS     r1,#0
        0x0010278a:    6001        .`      STR      r1,[r0,#0]
        0x0010278c:    f6400038    @.8.    MOV      r0,#0x838
        0x00102790:    f2c20010    ....    MOVT     r0,#0x2010
        0x00102794:    6801        .h      LDR      r1,[r0,#0]
        0x00102796:    3101        .1      ADDS     r1,#1
        0x00102798:    6001        .`      STR      r1,[r0,#0]
        0x0010279a:    e000        ..      B        0x10279e ; pvPortMalloc + 462
        0x0010279c:    e7ff        ..      B        0x10279e ; pvPortMalloc + 462
        0x0010279e:    e000        ..      B        0x1027a2 ; pvPortMalloc + 466
        0x001027a0:    e7ff        ..      B        0x1027a2 ; pvPortMalloc + 466
        0x001027a2:    e000        ..      B        0x1027a6 ; pvPortMalloc + 470
        0x001027a4:    e7ff        ..      B        0x1027a6 ; pvPortMalloc + 470
        0x001027a6:    f001fa89    ....    BL       xTaskResumeAll ; 0x103cbc
        0x001027aa:    f89d0004    ....    LDRB     r0,[sp,#4]
        0x001027ae:    0740        @.      LSLS     r0,r0,#29
        0x001027b0:    b120         .      CBZ      r0,0x1027bc ; pvPortMalloc + 492
        0x001027b2:    e7ff        ..      B        0x1027b4 ; pvPortMalloc + 484
        0x001027b4:    f000f8e6    ....    BL       ulSetInterruptMask ; 0x102984
        0x001027b8:    e7ff        ..      B        0x1027ba ; pvPortMalloc + 490
        0x001027ba:    e7fe        ..      B        0x1027ba ; pvPortMalloc + 490
        0x001027bc:    9801        ..      LDR      r0,[sp,#4]
        0x001027be:    b006        ..      ADD      sp,sp,#0x18
        0x001027c0:    bd80        ..      POP      {r7,pc}
        0x001027c2:    0000        ..      MOVS     r0,r0
    pxPortInitialiseStack
        0x001027c4:    b084        ..      SUB      sp,sp,#0x10
        0x001027c6:    9003        ..      STR      r0,[sp,#0xc]
        0x001027c8:    9102        ..      STR      r1,[sp,#8]
        0x001027ca:    9201        ..      STR      r2,[sp,#4]
        0x001027cc:    9300        ..      STR      r3,[sp,#0]
        0x001027ce:    9803        ..      LDR      r0,[sp,#0xc]
        0x001027d0:    3804        .8      SUBS     r0,#4
        0x001027d2:    9003        ..      STR      r0,[sp,#0xc]
        0x001027d4:    9803        ..      LDR      r0,[sp,#0xc]
        0x001027d6:    f04f7180    O..q    MOV      r1,#0x1000000
        0x001027da:    6001        .`      STR      r1,[r0,#0]
        0x001027dc:    9803        ..      LDR      r0,[sp,#0xc]
        0x001027de:    3804        .8      SUBS     r0,#4
        0x001027e0:    9003        ..      STR      r0,[sp,#0xc]
        0x001027e2:    9801        ..      LDR      r0,[sp,#4]
        0x001027e4:    9903        ..      LDR      r1,[sp,#0xc]
        0x001027e6:    6008        .`      STR      r0,[r1,#0]
        0x001027e8:    9803        ..      LDR      r0,[sp,#0xc]
        0x001027ea:    3804        .8      SUBS     r0,#4
        0x001027ec:    9003        ..      STR      r0,[sp,#0xc]
        0x001027ee:    9803        ..      LDR      r0,[sp,#0xc]
        0x001027f0:    f24241cd    B..A    MOV      r1,#0x24cd
        0x001027f4:    f2c00110    ....    MOVT     r1,#0x10
        0x001027f8:    6001        .`      STR      r1,[r0,#0]
        0x001027fa:    9803        ..      LDR      r0,[sp,#0xc]
        0x001027fc:    3804        .8      SUBS     r0,#4
        0x001027fe:    9003        ..      STR      r0,[sp,#0xc]
        0x00102800:    9803        ..      LDR      r0,[sp,#0xc]
        0x00102802:    f04f3112    O..1    MOV      r1,#0x12121212
        0x00102806:    6001        .`      STR      r1,[r0,#0]
        0x00102808:    9803        ..      LDR      r0,[sp,#0xc]
        0x0010280a:    3804        .8      SUBS     r0,#4
        0x0010280c:    9003        ..      STR      r0,[sp,#0xc]
        0x0010280e:    9803        ..      LDR      r0,[sp,#0xc]
        0x00102810:    f04f3103    O..1    MOV      r1,#0x3030303
        0x00102814:    6001        .`      STR      r1,[r0,#0]
        0x00102816:    9803        ..      LDR      r0,[sp,#0xc]
        0x00102818:    3804        .8      SUBS     r0,#4
        0x0010281a:    9003        ..      STR      r0,[sp,#0xc]
        0x0010281c:    9803        ..      LDR      r0,[sp,#0xc]
        0x0010281e:    f04f3102    O..1    MOV      r1,#0x2020202
        0x00102822:    6001        .`      STR      r1,[r0,#0]
        0x00102824:    9803        ..      LDR      r0,[sp,#0xc]
        0x00102826:    3804        .8      SUBS     r0,#4
        0x00102828:    9003        ..      STR      r0,[sp,#0xc]
        0x0010282a:    9803        ..      LDR      r0,[sp,#0xc]
        0x0010282c:    f04f3101    O..1    MOV      r1,#0x1010101
        0x00102830:    6001        .`      STR      r1,[r0,#0]
        0x00102832:    9803        ..      LDR      r0,[sp,#0xc]
        0x00102834:    3804        .8      SUBS     r0,#4
        0x00102836:    9003        ..      STR      r0,[sp,#0xc]
        0x00102838:    9800        ..      LDR      r0,[sp,#0]
        0x0010283a:    9903        ..      LDR      r1,[sp,#0xc]
        0x0010283c:    6008        .`      STR      r0,[r1,#0]
        0x0010283e:    9803        ..      LDR      r0,[sp,#0xc]
        0x00102840:    3804        .8      SUBS     r0,#4
        0x00102842:    9003        ..      STR      r0,[sp,#0xc]
        0x00102844:    9803        ..      LDR      r0,[sp,#0xc]
        0x00102846:    f04f3111    O..1    MOV      r1,#0x11111111
        0x0010284a:    6001        .`      STR      r1,[r0,#0]
        0x0010284c:    9803        ..      LDR      r0,[sp,#0xc]
        0x0010284e:    3804        .8      SUBS     r0,#4
        0x00102850:    9003        ..      STR      r0,[sp,#0xc]
        0x00102852:    9803        ..      LDR      r0,[sp,#0xc]
        0x00102854:    f04f3110    O..1    MOV      r1,#0x10101010
        0x00102858:    6001        .`      STR      r1,[r0,#0]
        0x0010285a:    9803        ..      LDR      r0,[sp,#0xc]
        0x0010285c:    3804        .8      SUBS     r0,#4
        0x0010285e:    9003        ..      STR      r0,[sp,#0xc]
        0x00102860:    9803        ..      LDR      r0,[sp,#0xc]
        0x00102862:    f04f3109    O..1    MOV      r1,#0x9090909
        0x00102866:    6001        .`      STR      r1,[r0,#0]
        0x00102868:    9803        ..      LDR      r0,[sp,#0xc]
        0x0010286a:    3804        .8      SUBS     r0,#4
        0x0010286c:    9003        ..      STR      r0,[sp,#0xc]
        0x0010286e:    9803        ..      LDR      r0,[sp,#0xc]
        0x00102870:    f04f3108    O..1    MOV      r1,#0x8080808
        0x00102874:    6001        .`      STR      r1,[r0,#0]
        0x00102876:    9803        ..      LDR      r0,[sp,#0xc]
        0x00102878:    3804        .8      SUBS     r0,#4
        0x0010287a:    9003        ..      STR      r0,[sp,#0xc]
        0x0010287c:    9803        ..      LDR      r0,[sp,#0xc]
        0x0010287e:    f04f3107    O..1    MOV      r1,#0x7070707
        0x00102882:    6001        .`      STR      r1,[r0,#0]
        0x00102884:    9803        ..      LDR      r0,[sp,#0xc]
        0x00102886:    3804        .8      SUBS     r0,#4
        0x00102888:    9003        ..      STR      r0,[sp,#0xc]
        0x0010288a:    9803        ..      LDR      r0,[sp,#0xc]
        0x0010288c:    f04f3106    O..1    MOV      r1,#0x6060606
        0x00102890:    6001        .`      STR      r1,[r0,#0]
        0x00102892:    9803        ..      LDR      r0,[sp,#0xc]
        0x00102894:    3804        .8      SUBS     r0,#4
        0x00102896:    9003        ..      STR      r0,[sp,#0xc]
        0x00102898:    9803        ..      LDR      r0,[sp,#0xc]
        0x0010289a:    f04f3105    O..1    MOV      r1,#0x5050505
        0x0010289e:    6001        .`      STR      r1,[r0,#0]
        0x001028a0:    9803        ..      LDR      r0,[sp,#0xc]
        0x001028a2:    3804        .8      SUBS     r0,#4
        0x001028a4:    9003        ..      STR      r0,[sp,#0xc]
        0x001028a6:    9803        ..      LDR      r0,[sp,#0xc]
        0x001028a8:    f04f3104    O..1    MOV      r1,#0x4040404
        0x001028ac:    6001        .`      STR      r1,[r0,#0]
        0x001028ae:    9803        ..      LDR      r0,[sp,#0xc]
        0x001028b0:    3804        .8      SUBS     r0,#4
        0x001028b2:    9003        ..      STR      r0,[sp,#0xc]
        0x001028b4:    9803        ..      LDR      r0,[sp,#0xc]
        0x001028b6:    f06f0143    o.C.    MVN      r1,#0x43
        0x001028ba:    6001        .`      STR      r1,[r0,#0]
        0x001028bc:    9803        ..      LDR      r0,[sp,#0xc]
        0x001028be:    3804        .8      SUBS     r0,#4
        0x001028c0:    9003        ..      STR      r0,[sp,#0xc]
        0x001028c2:    9802        ..      LDR      r0,[sp,#8]
        0x001028c4:    9903        ..      LDR      r1,[sp,#0xc]
        0x001028c6:    6008        .`      STR      r0,[r1,#0]
        0x001028c8:    9803        ..      LDR      r0,[sp,#0xc]
        0x001028ca:    3804        .8      SUBS     r0,#4
        0x001028cc:    9003        ..      STR      r0,[sp,#0xc]
        0x001028ce:    9803        ..      LDR      r0,[sp,#0xc]
        0x001028d0:    2100        .!      MOVS     r1,#0
        0x001028d2:    6001        .`      STR      r1,[r0,#0]
        0x001028d4:    9803        ..      LDR      r0,[sp,#0xc]
        0x001028d6:    b004        ..      ADD      sp,sp,#0x10
        0x001028d8:    4770        pG      BX       lr
        0x001028da:    0000        ..      MOVS     r0,r0
    thread_0
        0x001028dc:    b082        ..      SUB      sp,sp,#8
        0x001028de:    9001        ..      STR      r0,[sp,#4]
        0x001028e0:    f6441024    D.$.    MOV      r0,#0x4924
        0x001028e4:    f2c00010    ....    MOVT     r0,#0x10
        0x001028e8:    f7feff34    ..4.    BL       bk_no_secure_printf ; 0x101754
        0x001028ec:    e7ff        ..      B        0x1028ee ; thread_0 + 18
        0x001028ee:    f44f707a    O.zp    MOV      r0,#0x3e8
        0x001028f2:    f000fb07    ....    BL       vTaskDelay ; 0x102f04
        0x001028f6:    f6441095    D...    MOV      r0,#0x4995
        0x001028fa:    f2c00010    ....    MOVT     r0,#0x10
        0x001028fe:    f7feff29    ..).    BL       bk_no_secure_printf ; 0x101754
        0x00102902:    e7f4        ..      B        0x1028ee ; thread_0 + 18
    thread_1
        0x00102904:    b084        ..      SUB      sp,sp,#0x10
        0x00102906:    9003        ..      STR      r0,[sp,#0xc]
        0x00102908:    2000        .       MOVS     r0,#0
        0x0010290a:    9002        ..      STR      r0,[sp,#8]
        0x0010290c:    9001        ..      STR      r0,[sp,#4]
        0x0010290e:    f64200dd    B...    MOV      r0,#0x28dd
        0x00102912:    f2c00010    ....    MOVT     r0,#0x10
        0x00102916:    f644210a    D..!    MOV      r1,#0x4a0a
        0x0010291a:    f2c00110    ....    MOVT     r1,#0x10
        0x0010291e:    ab01        ..      ADD      r3,sp,#4
        0x00102920:    2205        ."      MOVS     r2,#5
        0x00102922:    f000fee9    ....    BL       xTaskCreate ; 0x1036f8
        0x00102926:    9002        ..      STR      r0,[sp,#8]
        0x00102928:    9802        ..      LDR      r0,[sp,#8]
        0x0010292a:    2801        .(      CMP      r0,#1
        0x0010292c:    d007        ..      BEQ      0x10293e ; thread_1 + 58
        0x0010292e:    e7ff        ..      B        0x102930 ; thread_1 + 44
        0x00102930:    f64400d6    D...    MOV      r0,#0x48d6
        0x00102934:    f2c00010    ....    MOVT     r0,#0x10
        0x00102938:    f7feff0c    ....    BL       bk_no_secure_printf ; 0x101754
        0x0010293c:    e7ff        ..      B        0x10293e ; thread_1 + 58
        0x0010293e:    e7ff        ..      B        0x102940 ; thread_1 + 60
        0x00102940:    f64410aa    D...    MOV      r0,#0x49aa
        0x00102944:    f2c00010    ....    MOVT     r0,#0x10
        0x00102948:    f7feff04    ....    BL       bk_no_secure_printf ; 0x101754
        0x0010294c:    f44f707a    O.zp    MOV      r0,#0x3e8
        0x00102950:    f000fad8    ....    BL       vTaskDelay ; 0x102f04
        0x00102954:    e7f4        ..      B        0x102940 ; thread_1 + 60
        0x00102956:    0000        ..      MOVS     r0,r0
    thread_2
        0x00102958:    b082        ..      SUB      sp,sp,#8
        0x0010295a:    9001        ..      STR      r0,[sp,#4]
        0x0010295c:    e7ff        ..      B        0x10295e ; thread_2 + 6
        0x0010295e:    f6441037    D.7.    MOV      r0,#0x4937
        0x00102962:    f2c00010    ....    MOVT     r0,#0x10
        0x00102966:    f7fefef5    ....    BL       bk_no_secure_printf ; 0x101754
        0x0010296a:    f44f7016    O..p    MOV      r0,#0x258
        0x0010296e:    f000fac9    ....    BL       vTaskDelay ; 0x102f04
        0x00102972:    e7f4        ..      B        0x10295e ; thread_2 + 6
    tz_put_char_int
        0x00102974:    f2404000    @..@    MOVW     r0,#0x400
        0x00102978:    f2c40000    ....    MOVT     r0,#0x4000
        0x0010297c:    f64f71ff    O..q    MOV      r1,#0xffff
        0x00102980:    6001        .`      STR      r1,[r0,#0]
        0x00102982:    4770        pG      BX       lr
    ulSetInterruptMask
        0x00102984:    f3ef8011    ....    MRS      r0,BASEPRI
        0x00102988:    f04f01a0    O...    MOV      r1,#0xa0
        0x0010298c:    f3818811    ....    MSR      BASEPRI,r1
        0x00102990:    f3bf8f4f    ..O.    DSB      
        0x00102994:    f3bf8f6f    ..o.    ISB      
        0x00102998:    4770        pG      BX       lr
        0x0010299a:    0000        ..      MOVS     r0,r0
    uxListRemove
        0x0010299c:    b082        ..      SUB      sp,sp,#8
        0x0010299e:    9001        ..      STR      r0,[sp,#4]
        0x001029a0:    9801        ..      LDR      r0,[sp,#4]
        0x001029a2:    6900        .i      LDR      r0,[r0,#0x10]
        0x001029a4:    9000        ..      STR      r0,[sp,#0]
        0x001029a6:    9801        ..      LDR      r0,[sp,#4]
        0x001029a8:    6841        Ah      LDR      r1,[r0,#4]
        0x001029aa:    6880        .h      LDR      r0,[r0,#8]
        0x001029ac:    6088        .`      STR      r0,[r1,#8]
        0x001029ae:    9801        ..      LDR      r0,[sp,#4]
        0x001029b0:    6841        Ah      LDR      r1,[r0,#4]
        0x001029b2:    6880        .h      LDR      r0,[r0,#8]
        0x001029b4:    6041        A`      STR      r1,[r0,#4]
        0x001029b6:    9800        ..      LDR      r0,[sp,#0]
        0x001029b8:    6840        @h      LDR      r0,[r0,#4]
        0x001029ba:    9901        ..      LDR      r1,[sp,#4]
        0x001029bc:    4288        .B      CMP      r0,r1
        0x001029be:    d105        ..      BNE      0x1029cc ; uxListRemove + 48
        0x001029c0:    e7ff        ..      B        0x1029c2 ; uxListRemove + 38
        0x001029c2:    9801        ..      LDR      r0,[sp,#4]
        0x001029c4:    6880        .h      LDR      r0,[r0,#8]
        0x001029c6:    9900        ..      LDR      r1,[sp,#0]
        0x001029c8:    6048        H`      STR      r0,[r1,#4]
        0x001029ca:    e000        ..      B        0x1029ce ; uxListRemove + 50
        0x001029cc:    e7ff        ..      B        0x1029ce ; uxListRemove + 50
        0x001029ce:    9801        ..      LDR      r0,[sp,#4]
        0x001029d0:    2100        .!      MOVS     r1,#0
        0x001029d2:    6101        .a      STR      r1,[r0,#0x10]
        0x001029d4:    9800        ..      LDR      r0,[sp,#0]
        0x001029d6:    6801        .h      LDR      r1,[r0,#0]
        0x001029d8:    3901        .9      SUBS     r1,#1
        0x001029da:    6001        .`      STR      r1,[r0,#0]
        0x001029dc:    9800        ..      LDR      r0,[sp,#0]
        0x001029de:    6800        .h      LDR      r0,[r0,#0]
        0x001029e0:    b002        ..      ADD      sp,sp,#8
        0x001029e2:    4770        pG      BX       lr
    vApplicationGetIdleTaskMemory
        0x001029e4:    b083        ..      SUB      sp,sp,#0xc
        0x001029e6:    9002        ..      STR      r0,[sp,#8]
        0x001029e8:    9101        ..      STR      r1,[sp,#4]
        0x001029ea:    9200        ..      STR      r2,[sp,#0]
        0x001029ec:    9802        ..      LDR      r0,[sp,#8]
        0x001029ee:    f240314c    @.L1    MOVW     r1,#0x34c
        0x001029f2:    f2c20110    ....    MOVT     r1,#0x2010
        0x001029f6:    6001        .`      STR      r1,[r0,#0]
        0x001029f8:    9801        ..      LDR      r0,[sp,#4]
        0x001029fa:    f24031c0    @..1    MOVW     r1,#0x3c0
        0x001029fe:    f2c20110    ....    MOVT     r1,#0x2010
        0x00102a02:    6001        .`      STR      r1,[r0,#0]
        0x00102a04:    9800        ..      LDR      r0,[sp,#0]
        0x00102a06:    2180        .!      MOVS     r1,#0x80
        0x00102a08:    6001        .`      STR      r1,[r0,#0]
        0x00102a0a:    b003        ..      ADD      sp,sp,#0xc
        0x00102a0c:    4770        pG      BX       lr
        0x00102a0e:    0000        ..      MOVS     r0,r0
    vApplicationGetTimerTaskMemory
        0x00102a10:    b083        ..      SUB      sp,sp,#0xc
        0x00102a12:    9002        ..      STR      r0,[sp,#8]
        0x00102a14:    9101        ..      STR      r1,[sp,#4]
        0x00102a16:    9200        ..      STR      r2,[sp,#0]
        0x00102a18:    9802        ..      LDR      r0,[sp,#8]
        0x00102a1a:    f24051c0    @..Q    MOVW     r1,#0x5c0
        0x00102a1e:    f2c20110    ....    MOVT     r1,#0x2010
        0x00102a22:    6001        .`      STR      r1,[r0,#0]
        0x00102a24:    9801        ..      LDR      r0,[sp,#4]
        0x00102a26:    f2406120    @. a    MOVW     r1,#0x620
        0x00102a2a:    f2c20110    ....    MOVT     r1,#0x2010
        0x00102a2e:    6001        .`      STR      r1,[r0,#0]
        0x00102a30:    9800        ..      LDR      r0,[sp,#0]
        0x00102a32:    2180        .!      MOVS     r1,#0x80
        0x00102a34:    6001        .`      STR      r1,[r0,#0]
        0x00102a36:    b003        ..      ADD      sp,sp,#0xc
        0x00102a38:    4770        pG      BX       lr
        0x00102a3a:    0000        ..      MOVS     r0,r0
    vApplicationIdleHook
        0x00102a3c:    b580        ..      PUSH     {r7,lr}
        0x00102a3e:    f2403048    @.H0    MOVW     r0,#0x348
        0x00102a42:    f2c20010    ....    MOVT     r0,#0x2010
        0x00102a46:    6800        .h      LDR      r0,[r0,#0]
        0x00102a48:    b940        @.      CBNZ     r0,0x102a5c ; vApplicationIdleHook + 32
        0x00102a4a:    e7ff        ..      B        0x102a4c ; vApplicationIdleHook + 16
        0x00102a4c:    f000ff36    ..6.    BL       xTaskGetTickCount ; 0x1038bc
        0x00102a50:    f2403148    @.H1    MOVW     r1,#0x348
        0x00102a54:    f2c20110    ....    MOVT     r1,#0x2010
        0x00102a58:    6008        .`      STR      r0,[r1,#0]
        0x00102a5a:    e7ff        ..      B        0x102a5c ; vApplicationIdleHook + 32
        0x00102a5c:    f000ff2e    ....    BL       xTaskGetTickCount ; 0x1038bc
        0x00102a60:    f2403148    @.H1    MOVW     r1,#0x348
        0x00102a64:    f2c20110    ....    MOVT     r1,#0x2010
        0x00102a68:    6809        .h      LDR      r1,[r1,#0]
        0x00102a6a:    1a40        @.      SUBS     r0,r0,r1
        0x00102a6c:    f5b07f7a    ..z.    CMP      r0,#0x3e8
        0x00102a70:    d30f        ..      BCC      0x102a92 ; vApplicationIdleHook + 86
        0x00102a72:    e7ff        ..      B        0x102a74 ; vApplicationIdleHook + 56
        0x00102a74:    f000ff22    ..".    BL       xTaskGetTickCount ; 0x1038bc
        0x00102a78:    f2403148    @.H1    MOVW     r1,#0x348
        0x00102a7c:    f2c20110    ....    MOVT     r1,#0x2010
        0x00102a80:    6008        .`      STR      r0,[r1,#0]
        0x00102a82:    6809        .h      LDR      r1,[r1,#0]
        0x00102a84:    f64410fc    D...    MOV      r0,#0x49fc
        0x00102a88:    f2c00010    ....    MOVT     r0,#0x10
        0x00102a8c:    f7fefe62    ..b.    BL       bk_no_secure_printf ; 0x101754
        0x00102a90:    e7ff        ..      B        0x102a92 ; vApplicationIdleHook + 86
        0x00102a92:    bd80        ..      POP      {r7,pc}
    vApplicationStackOverflowHook
        0x00102a94:    b580        ..      PUSH     {r7,lr}
        0x00102a96:    b082        ..      SUB      sp,sp,#8
        0x00102a98:    9001        ..      STR      r0,[sp,#4]
        0x00102a9a:    9100        ..      STR      r1,[sp,#0]
        0x00102a9c:    9800        ..      LDR      r0,[sp,#0]
        0x00102a9e:    b120         .      CBZ      r0,0x102aaa ; vApplicationStackOverflowHook + 22
        0x00102aa0:    e7ff        ..      B        0x102aa2 ; vApplicationStackOverflowHook + 14
        0x00102aa2:    f7ffff6f    ..o.    BL       ulSetInterruptMask ; 0x102984
        0x00102aa6:    e7ff        ..      B        0x102aa8 ; vApplicationStackOverflowHook + 20
        0x00102aa8:    e7fe        ..      B        0x102aa8 ; vApplicationStackOverflowHook + 20
        0x00102aaa:    b002        ..      ADD      sp,sp,#8
        0x00102aac:    bd80        ..      POP      {r7,pc}
        0x00102aae:    0000        ..      MOVS     r0,r0
    vClearInterruptMask
        0x00102ab0:    f3808811    ....    MSR      BASEPRI,r0
        0x00102ab4:    f3bf8f4f    ..O.    DSB      
        0x00102ab8:    f3bf8f6f    ..o.    ISB      
        0x00102abc:    4770        pG      BX       lr
        0x00102abe:    0000        ..      MOVS     r0,r0
    __tagsym$$used.2
    vHandleMemoryFault
        0x00102ac0:    b083        ..      SUB      sp,sp,#0xc
        0x00102ac2:    9002        ..      STR      r0,[sp,#8]
        0x00102ac4:    2001        .       MOVS     r0,#1
        0x00102ac6:    bb68        h.      CBNZ     r0,0x102b24 ; vHandleMemoryFault + 100
        0x00102ac8:    e7ff        ..      B        0x102aca ; vHandleMemoryFault + 10
        0x00102aca:    9802        ..      LDR      r0,[sp,#8]
        0x00102acc:    6980        .i      LDR      r0,[r0,#0x18]
        0x00102ace:    9001        ..      STR      r0,[sp,#4]
        0x00102ad0:    9801        ..      LDR      r0,[sp,#4]
        0x00102ad2:    8800        ..      LDRH     r0,[r0,#0]
        0x00102ad4:    f8ad0002    ....    STRH     r0,[sp,#2]
        0x00102ad8:    f8bd0002    ....    LDRH     r0,[sp,#2]
        0x00102adc:    f4004078    ..x@    AND      r0,r0,#0xf800
        0x00102ae0:    f8ad0002    ....    STRH     r0,[sp,#2]
        0x00102ae4:    f8bd0002    ....    LDRH     r0,[sp,#2]
        0x00102ae8:    0ac0        ..      LSRS     r0,r0,#11
        0x00102aea:    f8ad0002    ....    STRH     r0,[sp,#2]
        0x00102aee:    f8bd0002    ....    LDRH     r0,[sp,#2]
        0x00102af2:    281f        .(      CMP      r0,#0x1f
        0x00102af4:    d00a        ..      BEQ      0x102b0c ; vHandleMemoryFault + 76
        0x00102af6:    e7ff        ..      B        0x102af8 ; vHandleMemoryFault + 56
        0x00102af8:    f8bd0002    ....    LDRH     r0,[sp,#2]
        0x00102afc:    281e        .(      CMP      r0,#0x1e
        0x00102afe:    d005        ..      BEQ      0x102b0c ; vHandleMemoryFault + 76
        0x00102b00:    e7ff        ..      B        0x102b02 ; vHandleMemoryFault + 66
        0x00102b02:    f8bd0002    ....    LDRH     r0,[sp,#2]
        0x00102b06:    281d        .(      CMP      r0,#0x1d
        0x00102b08:    d104        ..      BNE      0x102b14 ; vHandleMemoryFault + 84
        0x00102b0a:    e7ff        ..      B        0x102b0c ; vHandleMemoryFault + 76
        0x00102b0c:    9801        ..      LDR      r0,[sp,#4]
        0x00102b0e:    3004        .0      ADDS     r0,#4
        0x00102b10:    9001        ..      STR      r0,[sp,#4]
        0x00102b12:    e003        ..      B        0x102b1c ; vHandleMemoryFault + 92
        0x00102b14:    9801        ..      LDR      r0,[sp,#4]
        0x00102b16:    3002        .0      ADDS     r0,#2
        0x00102b18:    9001        ..      STR      r0,[sp,#4]
        0x00102b1a:    e7ff        ..      B        0x102b1c ; vHandleMemoryFault + 92
        0x00102b1c:    9801        ..      LDR      r0,[sp,#4]
        0x00102b1e:    9902        ..      LDR      r1,[sp,#8]
        0x00102b20:    6188        .a      STR      r0,[r1,#0x18]
        0x00102b22:    e001        ..      B        0x102b28 ; vHandleMemoryFault + 104
        0x00102b24:    e7ff        ..      B        0x102b26 ; vHandleMemoryFault + 102
        0x00102b26:    e7fe        ..      B        0x102b26 ; vHandleMemoryFault + 102
        0x00102b28:    b003        ..      ADD      sp,sp,#0xc
        0x00102b2a:    4770        pG      BX       lr
    vListInitialise
        0x00102b2c:    b081        ..      SUB      sp,sp,#4
        0x00102b2e:    9000        ..      STR      r0,[sp,#0]
        0x00102b30:    9800        ..      LDR      r0,[sp,#0]
        0x00102b32:    f1000108    ....    ADD      r1,r0,#8
        0x00102b36:    6041        A`      STR      r1,[r0,#4]
        0x00102b38:    9800        ..      LDR      r0,[sp,#0]
        0x00102b3a:    f04f31ff    O..1    MOV      r1,#0xffffffff
        0x00102b3e:    6081        .`      STR      r1,[r0,#8]
        0x00102b40:    9800        ..      LDR      r0,[sp,#0]
        0x00102b42:    f1000108    ....    ADD      r1,r0,#8
        0x00102b46:    60c1        .`      STR      r1,[r0,#0xc]
        0x00102b48:    9800        ..      LDR      r0,[sp,#0]
        0x00102b4a:    f1000108    ....    ADD      r1,r0,#8
        0x00102b4e:    6101        .a      STR      r1,[r0,#0x10]
        0x00102b50:    9800        ..      LDR      r0,[sp,#0]
        0x00102b52:    2100        .!      MOVS     r1,#0
        0x00102b54:    6001        .`      STR      r1,[r0,#0]
        0x00102b56:    b001        ..      ADD      sp,sp,#4
        0x00102b58:    4770        pG      BX       lr
        0x00102b5a:    0000        ..      MOVS     r0,r0
    vListInitialiseItem
        0x00102b5c:    b081        ..      SUB      sp,sp,#4
        0x00102b5e:    9000        ..      STR      r0,[sp,#0]
        0x00102b60:    9800        ..      LDR      r0,[sp,#0]
        0x00102b62:    2100        .!      MOVS     r1,#0
        0x00102b64:    6101        .a      STR      r1,[r0,#0x10]
        0x00102b66:    b001        ..      ADD      sp,sp,#4
        0x00102b68:    4770        pG      BX       lr
        0x00102b6a:    0000        ..      MOVS     r0,r0
    vListInsert
        0x00102b6c:    b084        ..      SUB      sp,sp,#0x10
        0x00102b6e:    9003        ..      STR      r0,[sp,#0xc]
        0x00102b70:    9102        ..      STR      r1,[sp,#8]
        0x00102b72:    9802        ..      LDR      r0,[sp,#8]
        0x00102b74:    6800        .h      LDR      r0,[r0,#0]
        0x00102b76:    9000        ..      STR      r0,[sp,#0]
        0x00102b78:    9800        ..      LDR      r0,[sp,#0]
        0x00102b7a:    3001        .0      ADDS     r0,#1
        0x00102b7c:    b920         .      CBNZ     r0,0x102b88 ; vListInsert + 28
        0x00102b7e:    e7ff        ..      B        0x102b80 ; vListInsert + 20
        0x00102b80:    9803        ..      LDR      r0,[sp,#0xc]
        0x00102b82:    6900        .i      LDR      r0,[r0,#0x10]
        0x00102b84:    9001        ..      STR      r0,[sp,#4]
        0x00102b86:    e010        ..      B        0x102baa ; vListInsert + 62
        0x00102b88:    9803        ..      LDR      r0,[sp,#0xc]
        0x00102b8a:    3008        .0      ADDS     r0,r0,#8
        0x00102b8c:    9001        ..      STR      r0,[sp,#4]
        0x00102b8e:    e7ff        ..      B        0x102b90 ; vListInsert + 36
        0x00102b90:    9801        ..      LDR      r0,[sp,#4]
        0x00102b92:    6840        @h      LDR      r0,[r0,#4]
        0x00102b94:    6800        .h      LDR      r0,[r0,#0]
        0x00102b96:    9900        ..      LDR      r1,[sp,#0]
        0x00102b98:    4288        .B      CMP      r0,r1
        0x00102b9a:    d805        ..      BHI      0x102ba8 ; vListInsert + 60
        0x00102b9c:    e7ff        ..      B        0x102b9e ; vListInsert + 50
        0x00102b9e:    e7ff        ..      B        0x102ba0 ; vListInsert + 52
        0x00102ba0:    9801        ..      LDR      r0,[sp,#4]
        0x00102ba2:    6840        @h      LDR      r0,[r0,#4]
        0x00102ba4:    9001        ..      STR      r0,[sp,#4]
        0x00102ba6:    e7f3        ..      B        0x102b90 ; vListInsert + 36
        0x00102ba8:    e7ff        ..      B        0x102baa ; vListInsert + 62
        0x00102baa:    9801        ..      LDR      r0,[sp,#4]
        0x00102bac:    6840        @h      LDR      r0,[r0,#4]
        0x00102bae:    9902        ..      LDR      r1,[sp,#8]
        0x00102bb0:    6048        H`      STR      r0,[r1,#4]
        0x00102bb2:    9802        ..      LDR      r0,[sp,#8]
        0x00102bb4:    6841        Ah      LDR      r1,[r0,#4]
        0x00102bb6:    6088        .`      STR      r0,[r1,#8]
        0x00102bb8:    9801        ..      LDR      r0,[sp,#4]
        0x00102bba:    9902        ..      LDR      r1,[sp,#8]
        0x00102bbc:    6088        .`      STR      r0,[r1,#8]
        0x00102bbe:    9802        ..      LDR      r0,[sp,#8]
        0x00102bc0:    9901        ..      LDR      r1,[sp,#4]
        0x00102bc2:    6048        H`      STR      r0,[r1,#4]
        0x00102bc4:    9803        ..      LDR      r0,[sp,#0xc]
        0x00102bc6:    9902        ..      LDR      r1,[sp,#8]
        0x00102bc8:    6108        .a      STR      r0,[r1,#0x10]
        0x00102bca:    9803        ..      LDR      r0,[sp,#0xc]
        0x00102bcc:    6801        .h      LDR      r1,[r0,#0]
        0x00102bce:    3101        .1      ADDS     r1,#1
        0x00102bd0:    6001        .`      STR      r1,[r0,#0]
        0x00102bd2:    b004        ..      ADD      sp,sp,#0x10
        0x00102bd4:    4770        pG      BX       lr
        0x00102bd6:    0000        ..      MOVS     r0,r0
    vListInsertEnd
        0x00102bd8:    b083        ..      SUB      sp,sp,#0xc
        0x00102bda:    f2402120    @. !    MOVW     r1,#0x220
        0x00102bde:    f2c20110    ....    MOVT     r1,#0x2010
        0x00102be2:    9102        ..      STR      r1,[sp,#8]
        0x00102be4:    9001        ..      STR      r0,[sp,#4]
        0x00102be6:    9802        ..      LDR      r0,[sp,#8]
        0x00102be8:    6840        @h      LDR      r0,[r0,#4]
        0x00102bea:    9000        ..      STR      r0,[sp,#0]
        0x00102bec:    9800        ..      LDR      r0,[sp,#0]
        0x00102bee:    9901        ..      LDR      r1,[sp,#4]
        0x00102bf0:    6048        H`      STR      r0,[r1,#4]
        0x00102bf2:    9800        ..      LDR      r0,[sp,#0]
        0x00102bf4:    6880        .h      LDR      r0,[r0,#8]
        0x00102bf6:    9901        ..      LDR      r1,[sp,#4]
        0x00102bf8:    6088        .`      STR      r0,[r1,#8]
        0x00102bfa:    9801        ..      LDR      r0,[sp,#4]
        0x00102bfc:    9900        ..      LDR      r1,[sp,#0]
        0x00102bfe:    6889        .h      LDR      r1,[r1,#8]
        0x00102c00:    6048        H`      STR      r0,[r1,#4]
        0x00102c02:    9801        ..      LDR      r0,[sp,#4]
        0x00102c04:    9900        ..      LDR      r1,[sp,#0]
        0x00102c06:    6088        .`      STR      r0,[r1,#8]
        0x00102c08:    9802        ..      LDR      r0,[sp,#8]
        0x00102c0a:    9901        ..      LDR      r1,[sp,#4]
        0x00102c0c:    6108        .a      STR      r0,[r1,#0x10]
        0x00102c0e:    9802        ..      LDR      r0,[sp,#8]
        0x00102c10:    6801        .h      LDR      r1,[r0,#0]
        0x00102c12:    3101        .1      ADDS     r1,#1
        0x00102c14:    6001        .`      STR      r1,[r0,#0]
        0x00102c16:    b003        ..      ADD      sp,sp,#0xc
        0x00102c18:    4770        pG      BX       lr
        0x00102c1a:    0000        ..      MOVS     r0,r0
    vPortEnterCritical
        0x00102c1c:    b580        ..      PUSH     {r7,lr}
        0x00102c1e:    f7fffeb1    ....    BL       ulSetInterruptMask ; 0x102984
        0x00102c22:    f2400000    @...    MOVW     r0,#0
        0x00102c26:    f2c20010    ....    MOVT     r0,#0x2010
        0x00102c2a:    6801        .h      LDR      r1,[r0,#0]
        0x00102c2c:    3101        .1      ADDS     r1,#1
        0x00102c2e:    6001        .`      STR      r1,[r0,#0]
        0x00102c30:    f3bf8f4f    ..O.    DSB      
        0x00102c34:    f3bf8f6f    ..o.    ISB      
        0x00102c38:    bd80        ..      POP      {r7,pc}
        0x00102c3a:    0000        ..      MOVS     r0,r0
    vPortExitCritical
        0x00102c3c:    b580        ..      PUSH     {r7,lr}
        0x00102c3e:    f2400000    @...    MOVW     r0,#0
        0x00102c42:    f2c20010    ....    MOVT     r0,#0x2010
        0x00102c46:    6800        .h      LDR      r0,[r0,#0]
        0x00102c48:    b920         .      CBNZ     r0,0x102c54 ; vPortExitCritical + 24
        0x00102c4a:    e7ff        ..      B        0x102c4c ; vPortExitCritical + 16
        0x00102c4c:    f7fffe9a    ....    BL       ulSetInterruptMask ; 0x102984
        0x00102c50:    e7ff        ..      B        0x102c52 ; vPortExitCritical + 22
        0x00102c52:    e7fe        ..      B        0x102c52 ; vPortExitCritical + 22
        0x00102c54:    f2400000    @...    MOVW     r0,#0
        0x00102c58:    f2c20010    ....    MOVT     r0,#0x2010
        0x00102c5c:    6801        .h      LDR      r1,[r0,#0]
        0x00102c5e:    3901        .9      SUBS     r1,#1
        0x00102c60:    6001        .`      STR      r1,[r0,#0]
        0x00102c62:    6800        .h      LDR      r0,[r0,#0]
        0x00102c64:    b920         .      CBNZ     r0,0x102c70 ; vPortExitCritical + 52
        0x00102c66:    e7ff        ..      B        0x102c68 ; vPortExitCritical + 44
        0x00102c68:    2000        .       MOVS     r0,#0
        0x00102c6a:    f7ffff21    ..!.    BL       vClearInterruptMask ; 0x102ab0
        0x00102c6e:    e7ff        ..      B        0x102c70 ; vPortExitCritical + 52
        0x00102c70:    bd80        ..      POP      {r7,pc}
        0x00102c72:    0000        ..      MOVS     r0,r0
    vPortFree
        0x00102c74:    b580        ..      PUSH     {r7,lr}
        0x00102c76:    b084        ..      SUB      sp,sp,#0x10
        0x00102c78:    9003        ..      STR      r0,[sp,#0xc]
        0x00102c7a:    9803        ..      LDR      r0,[sp,#0xc]
        0x00102c7c:    9002        ..      STR      r0,[sp,#8]
        0x00102c7e:    9803        ..      LDR      r0,[sp,#0xc]
        0x00102c80:    2800        .(      CMP      r0,#0
        0x00102c82:    d05a        Z.      BEQ      0x102d3a ; vPortFree + 198
        0x00102c84:    e7ff        ..      B        0x102c86 ; vPortFree + 18
        0x00102c86:    9802        ..      LDR      r0,[sp,#8]
        0x00102c88:    3808        .8      SUBS     r0,r0,#8
        0x00102c8a:    9002        ..      STR      r0,[sp,#8]
        0x00102c8c:    9802        ..      LDR      r0,[sp,#8]
        0x00102c8e:    9001        ..      STR      r0,[sp,#4]
        0x00102c90:    9801        ..      LDR      r0,[sp,#4]
        0x00102c92:    6840        @h      LDR      r0,[r0,#4]
        0x00102c94:    f6400124    @.$.    MOV      r1,#0x824
        0x00102c98:    f2c20110    ....    MOVT     r1,#0x2010
        0x00102c9c:    7809        .x      LDRB     r1,[r1,#0]
        0x00102c9e:    2900        .)      CMP      r1,#0
        0x00102ca0:    bf18        ..      IT       NE
        0x00102ca2:    f04f4100    O..A    MOVNE    r1,#0x80000000
        0x00102ca6:    4208        .B      TST      r0,r1
        0x00102ca8:    d104        ..      BNE      0x102cb4 ; vPortFree + 64
        0x00102caa:    e7ff        ..      B        0x102cac ; vPortFree + 56
        0x00102cac:    f7fffe6a    ..j.    BL       ulSetInterruptMask ; 0x102984
        0x00102cb0:    e7ff        ..      B        0x102cb2 ; vPortFree + 62
        0x00102cb2:    e7fe        ..      B        0x102cb2 ; vPortFree + 62
        0x00102cb4:    9801        ..      LDR      r0,[sp,#4]
        0x00102cb6:    6800        .h      LDR      r0,[r0,#0]
        0x00102cb8:    b120         .      CBZ      r0,0x102cc4 ; vPortFree + 80
        0x00102cba:    e7ff        ..      B        0x102cbc ; vPortFree + 72
        0x00102cbc:    f7fffe62    ..b.    BL       ulSetInterruptMask ; 0x102984
        0x00102cc0:    e7ff        ..      B        0x102cc2 ; vPortFree + 78
        0x00102cc2:    e7fe        ..      B        0x102cc2 ; vPortFree + 78
        0x00102cc4:    9801        ..      LDR      r0,[sp,#4]
        0x00102cc6:    6840        @h      LDR      r0,[r0,#4]
        0x00102cc8:    f6400124    @.$.    MOV      r1,#0x824
        0x00102ccc:    f2c20110    ....    MOVT     r1,#0x2010
        0x00102cd0:    7809        .x      LDRB     r1,[r1,#0]
        0x00102cd2:    2900        .)      CMP      r1,#0
        0x00102cd4:    bf18        ..      IT       NE
        0x00102cd6:    f04f4100    O..A    MOVNE    r1,#0x80000000
        0x00102cda:    4208        .B      TST      r0,r1
        0x00102cdc:    d02b        +.      BEQ      0x102d36 ; vPortFree + 194
        0x00102cde:    e7ff        ..      B        0x102ce0 ; vPortFree + 108
        0x00102ce0:    9801        ..      LDR      r0,[sp,#4]
        0x00102ce2:    6800        .h      LDR      r0,[r0,#0]
        0x00102ce4:    bb28        (.      CBNZ     r0,0x102d32 ; vPortFree + 190
        0x00102ce6:    e7ff        ..      B        0x102ce8 ; vPortFree + 116
        0x00102ce8:    f6400024    @.$.    MOV      r0,#0x824
        0x00102cec:    f2c20010    ....    MOVT     r0,#0x2010
        0x00102cf0:    7800        .x      LDRB     r0,[r0,#0]
        0x00102cf2:    9901        ..      LDR      r1,[sp,#4]
        0x00102cf4:    684a        Jh      LDR      r2,[r1,#4]
        0x00102cf6:    f0224300    "..C    BIC      r3,r2,#0x80000000
        0x00102cfa:    2800        .(      CMP      r0,#0
        0x00102cfc:    bf18        ..      IT       NE
        0x00102cfe:    461a        .F      MOVNE    r2,r3
        0x00102d00:    604a        J`      STR      r2,[r1,#4]
        0x00102d02:    f000fa6d    ..m.    BL       vTaskSuspendAll ; 0x1031e0
        0x00102d06:    9801        ..      LDR      r0,[sp,#4]
        0x00102d08:    6840        @h      LDR      r0,[r0,#4]
        0x00102d0a:    f6400128    @.(.    MOV      r1,#0x828
        0x00102d0e:    f2c20110    ....    MOVT     r1,#0x2010
        0x00102d12:    680a        .h      LDR      r2,[r1,#0]
        0x00102d14:    4410        .D      ADD      r0,r0,r2
        0x00102d16:    6008        .`      STR      r0,[r1,#0]
        0x00102d18:    9801        ..      LDR      r0,[sp,#4]
        0x00102d1a:    f7fff967    ..g.    BL       prvInsertBlockIntoFreeList ; 0x101fec
        0x00102d1e:    f649003c    I.<.    MOV      r0,#0x983c
        0x00102d22:    f2c20011    ....    MOVT     r0,#0x2011
        0x00102d26:    6801        .h      LDR      r1,[r0,#0]
        0x00102d28:    3101        .1      ADDS     r1,#1
        0x00102d2a:    6001        .`      STR      r1,[r0,#0]
        0x00102d2c:    f000ffc6    ....    BL       xTaskResumeAll ; 0x103cbc
        0x00102d30:    e000        ..      B        0x102d34 ; vPortFree + 192
        0x00102d32:    e7ff        ..      B        0x102d34 ; vPortFree + 192
        0x00102d34:    e000        ..      B        0x102d38 ; vPortFree + 196
        0x00102d36:    e7ff        ..      B        0x102d38 ; vPortFree + 196
        0x00102d38:    e7ff        ..      B        0x102d3a ; vPortFree + 198
        0x00102d3a:    b004        ..      ADD      sp,sp,#0x10
        0x00102d3c:    bd80        ..      POP      {r7,pc}
        0x00102d3e:    0000        ..      MOVS     r0,r0
    vPortFreeSecureContext
        0x00102d40:    6802        .h      LDR      r2,[r0,#0]
        0x00102d42:    6811        .h      LDR      r1,[r2,#0]
        0x00102d44:    2900        .)      CMP      r1,#0
        0x00102d46:    bf18        ..      IT       NE
        0x00102d48:    df01        ..      SVCNE    #0x1 ; formerly SWI
        0x00102d4a:    4770        pG      BX       lr
    __tagsym$$used.1
    vPortSVCHandler_C
        0x00102d4c:    b580        ..      PUSH     {r7,lr}
        0x00102d4e:    b086        ..      SUB      sp,sp,#0x18
        0x00102d50:    9005        ..      STR      r0,[sp,#0x14]
        0x00102d52:    9805        ..      LDR      r0,[sp,#0x14]
        0x00102d54:    6980        .i      LDR      r0,[r0,#0x18]
        0x00102d56:    9004        ..      STR      r0,[sp,#0x10]
        0x00102d58:    9804        ..      LDR      r0,[sp,#0x10]
        0x00102d5a:    f8100c02    ....    LDRB     r0,[r0,#-2]
        0x00102d5e:    f88d0007    ....    STRB     r0,[sp,#7]
        0x00102d62:    f89d0007    ....    LDRB     r0,[sp,#7]
        0x00102d66:    b130        0.      CBZ      r0,0x102d76 ; vPortSVCHandler_C + 42
        0x00102d68:    e7ff        ..      B        0x102d6a ; vPortSVCHandler_C + 30
        0x00102d6a:    2801        .(      CMP      r0,#1
        0x00102d6c:    d027        '.      BEQ      0x102dbe ; vPortSVCHandler_C + 114
        0x00102d6e:    e7ff        ..      B        0x102d70 ; vPortSVCHandler_C + 36
        0x00102d70:    2802        .(      CMP      r0,#2
        0x00102d72:    d02f        /.      BEQ      0x102dd4 ; vPortSVCHandler_C + 136
        0x00102d74:    e037        7.      B        0x102de6 ; vPortSVCHandler_C + 154
        0x00102d76:    9805        ..      LDR      r0,[sp,#0x14]
        0x00102d78:    6800        .h      LDR      r0,[r0,#0]
        0x00102d7a:    9003        ..      STR      r0,[sp,#0xc]
        0x00102d7c:    9803        ..      LDR      r0,[sp,#0xc]
        0x00102d7e:    f2401100    @...    MOVW     r1,#0x100
        0x00102d82:    f2c20110    ....    MOVT     r1,#0x2010
        0x00102d86:    6809        .h      LDR      r1,[r1,#0]
        0x00102d88:    f701f9ca    ....    BL       SecureContext_AllocateContext ; 0x4120
        0x00102d8c:    f2403144    @.D1    MOVW     r1,#0x344
        0x00102d90:    f2c20110    ....    MOVT     r1,#0x2010
        0x00102d94:    6008        .`      STR      r0,[r1,#0]
        0x00102d96:    6808        .h      LDR      r0,[r1,#0]
        0x00102d98:    b920         .      CBNZ     r0,0x102da4 ; vPortSVCHandler_C + 88
        0x00102d9a:    e7ff        ..      B        0x102d9c ; vPortSVCHandler_C + 80
        0x00102d9c:    f7fffdf2    ....    BL       ulSetInterruptMask ; 0x102984
        0x00102da0:    e7ff        ..      B        0x102da2 ; vPortSVCHandler_C + 86
        0x00102da2:    e7fe        ..      B        0x102da2 ; vPortSVCHandler_C + 86
        0x00102da4:    f2403044    @.D0    MOVW     r0,#0x344
        0x00102da8:    f2c20010    ....    MOVT     r0,#0x2010
        0x00102dac:    6800        .h      LDR      r0,[r0,#0]
        0x00102dae:    f2401100    @...    MOVW     r1,#0x100
        0x00102db2:    f2c20110    ....    MOVT     r1,#0x2010
        0x00102db6:    6809        .h      LDR      r1,[r1,#0]
        0x00102db8:    f701f9be    ....    BL       SecureContext_LoadContext ; 0x4138
        0x00102dbc:    e017        ..      B        0x102dee ; vPortSVCHandler_C + 162
        0x00102dbe:    9805        ..      LDR      r0,[sp,#0x14]
        0x00102dc0:    6800        .h      LDR      r0,[r0,#0]
        0x00102dc2:    9003        ..      STR      r0,[sp,#0xc]
        0x00102dc4:    9805        ..      LDR      r0,[sp,#0x14]
        0x00102dc6:    6840        @h      LDR      r0,[r0,#4]
        0x00102dc8:    9002        ..      STR      r0,[sp,#8]
        0x00102dca:    9802        ..      LDR      r0,[sp,#8]
        0x00102dcc:    9903        ..      LDR      r1,[sp,#0xc]
        0x00102dce:    f701f9ab    ....    BL       SecureContext_FreeContext ; 0x4128
        0x00102dd2:    e00c        ..      B        0x102dee ; vPortSVCHandler_C + 162
        0x00102dd4:    f701f9b8    ....    BL       SecureInit_DePrioritizeNSExceptions ; 0x4148
        0x00102dd8:    f701f9aa    ....    BL       SecureContext_Init ; 0x4130
        0x00102ddc:    f7fffb38    ..8.    BL       prvSetupFPU ; 0x102450
        0x00102de0:    f000f85e    ..^.    BL       vRestoreContextOfFirstTask ; 0x102ea0
        0x00102de4:    e003        ..      B        0x102dee ; vPortSVCHandler_C + 162
        0x00102de6:    f7fffdcd    ....    BL       ulSetInterruptMask ; 0x102984
        0x00102dea:    e7ff        ..      B        0x102dec ; vPortSVCHandler_C + 160
        0x00102dec:    e7fe        ..      B        0x102dec ; vPortSVCHandler_C + 160
        0x00102dee:    b006        ..      ADD      sp,sp,#0x18
        0x00102df0:    bd80        ..      POP      {r7,pc}
        0x00102df2:    0000        ..      MOVS     r0,r0
    vPortSetupTimerInterrupt
        0x00102df4:    f24e0010    N...    MOV      r0,#0xe010
        0x00102df8:    f2ce0000    ....    MOVT     r0,#0xe000
        0x00102dfc:    2100        .!      MOVS     r1,#0
        0x00102dfe:    6001        .`      STR      r1,[r0,#0]
        0x00102e00:    f24e0218    N...    MOV      r2,#0xe018
        0x00102e04:    f2ce0200    ....    MOVT     r2,#0xe000
        0x00102e08:    6011        .`      STR      r1,[r2,#0]
        0x00102e0a:    f24e0114    N...    MOV      r1,#0xe014
        0x00102e0e:    f2ce0100    ....    MOVT     r1,#0xe000
        0x00102e12:    f24d028f    M...    MOV      r2,#0xd08f
        0x00102e16:    f2c00203    ....    MOVT     r2,#3
        0x00102e1a:    600a        .`      STR      r2,[r1,#0]
        0x00102e1c:    2107        .!      MOVS     r1,#7
        0x00102e1e:    6001        .`      STR      r1,[r0,#0]
        0x00102e20:    4770        pG      BX       lr
        0x00102e22:    0000        ..      MOVS     r0,r0
    vPortYield
        0x00102e24:    f64e5004    N..P    MOV      r0,#0xed04
        0x00102e28:    f2ce0000    ....    MOVT     r0,#0xe000
        0x00102e2c:    f04f5180    O..Q    MOV      r1,#0x10000000
        0x00102e30:    6001        .`      STR      r1,[r0,#0]
        0x00102e32:    f3bf8f4f    ..O.    DSB      
        0x00102e36:    f3bf8f6f    ..o.    ISB      
        0x00102e3a:    4770        pG      BX       lr
    vQueueWaitForMessageRestricted
        0x00102e3c:    b580        ..      PUSH     {r7,lr}
        0x00102e3e:    b084        ..      SUB      sp,sp,#0x10
        0x00102e40:    9003        ..      STR      r0,[sp,#0xc]
        0x00102e42:    9102        ..      STR      r1,[sp,#8]
        0x00102e44:    9201        ..      STR      r2,[sp,#4]
        0x00102e46:    9803        ..      LDR      r0,[sp,#0xc]
        0x00102e48:    9000        ..      STR      r0,[sp,#0]
        0x00102e4a:    f7fffee7    ....    BL       vPortEnterCritical ; 0x102c1c
        0x00102e4e:    9800        ..      LDR      r0,[sp,#0]
        0x00102e50:    f9900044    ..D.    LDRSB    r0,[r0,#0x44]
        0x00102e54:    3001        .0      ADDS     r0,#1
        0x00102e56:    b928        (.      CBNZ     r0,0x102e64 ; vQueueWaitForMessageRestricted + 40
        0x00102e58:    e7ff        ..      B        0x102e5a ; vQueueWaitForMessageRestricted + 30
        0x00102e5a:    9800        ..      LDR      r0,[sp,#0]
        0x00102e5c:    2100        .!      MOVS     r1,#0
        0x00102e5e:    f8801044    ..D.    STRB     r1,[r0,#0x44]
        0x00102e62:    e7ff        ..      B        0x102e64 ; vQueueWaitForMessageRestricted + 40
        0x00102e64:    9800        ..      LDR      r0,[sp,#0]
        0x00102e66:    f9900045    ..E.    LDRSB    r0,[r0,#0x45]
        0x00102e6a:    3001        .0      ADDS     r0,#1
        0x00102e6c:    b928        (.      CBNZ     r0,0x102e7a ; vQueueWaitForMessageRestricted + 62
        0x00102e6e:    e7ff        ..      B        0x102e70 ; vQueueWaitForMessageRestricted + 52
        0x00102e70:    9800        ..      LDR      r0,[sp,#0]
        0x00102e72:    2100        .!      MOVS     r1,#0
        0x00102e74:    f8801045    ..E.    STRB     r1,[r0,#0x45]
        0x00102e78:    e7ff        ..      B        0x102e7a ; vQueueWaitForMessageRestricted + 62
        0x00102e7a:    f7fffedf    ....    BL       vPortExitCritical ; 0x102c3c
        0x00102e7e:    9800        ..      LDR      r0,[sp,#0]
        0x00102e80:    6b80        .k      LDR      r0,[r0,#0x38]
        0x00102e82:    b938        8.      CBNZ     r0,0x102e94 ; vQueueWaitForMessageRestricted + 88
        0x00102e84:    e7ff        ..      B        0x102e86 ; vQueueWaitForMessageRestricted + 74
        0x00102e86:    9800        ..      LDR      r0,[sp,#0]
        0x00102e88:    3024        $0      ADDS     r0,r0,#0x24
        0x00102e8a:    9902        ..      LDR      r1,[sp,#8]
        0x00102e8c:    9a01        ..      LDR      r2,[sp,#4]
        0x00102e8e:    f000f90f    ....    BL       vTaskPlaceOnEventListRestricted ; 0x1030b0
        0x00102e92:    e000        ..      B        0x102e96 ; vQueueWaitForMessageRestricted + 90
        0x00102e94:    e7ff        ..      B        0x102e96 ; vQueueWaitForMessageRestricted + 90
        0x00102e96:    9800        ..      LDR      r0,[sp,#0]
        0x00102e98:    f7fffb40    ..@.    BL       prvUnlockQueue ; 0x10251c
        0x00102e9c:    b004        ..      ADD      sp,sp,#0x10
        0x00102e9e:    bd80        ..      POP      {r7,pc}
    vRestoreContextOfFirstTask
        0x00102ea0:    4a0b        .J      LDR      r2,[pc,#44] ; [0x102ed0] = 0x20100100
        0x00102ea2:    6813        .h      LDR      r3,[r2,#0]
        0x00102ea4:    6818        .h      LDR      r0,[r3,#0]
        0x00102ea6:    c80e        ..      LDM      r0!,{r1-r3}
        0x00102ea8:    4c0a        .L      LDR      r4,[pc,#40] ; [0x102ed4] = 0x20100344
        0x00102eaa:    6021        !`      STR      r1,[r4,#0]
        0x00102eac:    f382880b    ....    MSR      PSPLIM,r2
        0x00102eb0:    2102        .!      MOVS     r1,#2
        0x00102eb2:    f3818814    ....    MSR      CONTROL,r1
        0x00102eb6:    3020         0      ADDS     r0,r0,#0x20
        0x00102eb8:    f3808809    ....    MSR      PSP,r0
        0x00102ebc:    f3bf8f6f    ..o.    ISB      
        0x00102ec0:    f04f0000    O...    MOV      r0,#0
        0x00102ec4:    f3808811    ....    MSR      BASEPRI,r0
        0x00102ec8:    4718        .G      BX       r3
        0x00102eca:    bf00        ..      NOP      
        0x00102ecc:    bf00        ..      NOP      
        0x00102ece:    bf00        ..      NOP      
    $d.77
    pxCurrentTCBConst2
        0x00102ed0:    20100100    ...     DCD    537919744
    xSecureContextConst2
        0x00102ed4:    20100344    D..     DCD    537920324
        0x00102ed8:    00000000    ....    DCD    0
        0x00102edc:    00000000    ....    DCD    0
    $t.78
    vStartFirstTask
        0x00102ee0:    4807        .H      LDR      r0,[pc,#28] ; [0x102f00] = 0xe000ed08
        0x00102ee2:    6800        .h      LDR      r0,[r0,#0]
        0x00102ee4:    6800        .h      LDR      r0,[r0,#0]
        0x00102ee6:    f3808808    ....    MSR      MSP,r0
        0x00102eea:    b662        b.      CPSIE    i
        0x00102eec:    b661        a.      CPSIE    f
        0x00102eee:    f3bf8f4f    ..O.    DSB      
        0x00102ef2:    f3bf8f6f    ..o.    ISB      
        0x00102ef6:    df02        ..      SVC      #0x2 ; formerly SWI
        0x00102ef8:    bf00        ..      NOP      
        0x00102efa:    bf00        ..      NOP      
        0x00102efc:    bf00        ..      NOP      
        0x00102efe:    bf00        ..      NOP      
    $d.79
    xVTORConst
        0x00102f00:    e000ed08    ....    DCD    3758157064
    $t.33
    vTaskDelay
        0x00102f04:    b580        ..      PUSH     {r7,lr}
        0x00102f06:    b082        ..      SUB      sp,sp,#8
        0x00102f08:    9001        ..      STR      r0,[sp,#4]
        0x00102f0a:    2000        .       MOVS     r0,#0
        0x00102f0c:    9000        ..      STR      r0,[sp,#0]
        0x00102f0e:    9801        ..      LDR      r0,[sp,#4]
        0x00102f10:    b1a8        ..      CBZ      r0,0x102f3e ; vTaskDelay + 58
        0x00102f12:    e7ff        ..      B        0x102f14 ; vTaskDelay + 16
        0x00102f14:    f2401004    @...    MOVW     r0,#0x104
        0x00102f18:    f2c20010    ....    MOVT     r0,#0x2010
        0x00102f1c:    6800        .h      LDR      r0,[r0,#0]
        0x00102f1e:    b120         .      CBZ      r0,0x102f2a ; vTaskDelay + 38
        0x00102f20:    e7ff        ..      B        0x102f22 ; vTaskDelay + 30
        0x00102f22:    f7fffd2f    ../.    BL       ulSetInterruptMask ; 0x102984
        0x00102f26:    e7ff        ..      B        0x102f28 ; vTaskDelay + 36
        0x00102f28:    e7fe        ..      B        0x102f28 ; vTaskDelay + 36
        0x00102f2a:    f000f959    ..Y.    BL       vTaskSuspendAll ; 0x1031e0
        0x00102f2e:    9801        ..      LDR      r0,[sp,#4]
        0x00102f30:    2100        .!      MOVS     r1,#0
        0x00102f32:    f7fefcf3    ....    BL       prvAddCurrentTaskToDelayedList ; 0x10191c
        0x00102f36:    f000fec1    ....    BL       xTaskResumeAll ; 0x103cbc
        0x00102f3a:    9000        ..      STR      r0,[sp,#0]
        0x00102f3c:    e000        ..      B        0x102f40 ; vTaskDelay + 60
        0x00102f3e:    e7ff        ..      B        0x102f40 ; vTaskDelay + 60
        0x00102f40:    9800        ..      LDR      r0,[sp,#0]
        0x00102f42:    b918        ..      CBNZ     r0,0x102f4c ; vTaskDelay + 72
        0x00102f44:    e7ff        ..      B        0x102f46 ; vTaskDelay + 66
        0x00102f46:    f7ffff6d    ..m.    BL       vPortYield ; 0x102e24
        0x00102f4a:    e000        ..      B        0x102f4e ; vTaskDelay + 74
        0x00102f4c:    e7ff        ..      B        0x102f4e ; vTaskDelay + 74
        0x00102f4e:    b002        ..      ADD      sp,sp,#8
        0x00102f50:    bd80        ..      POP      {r7,pc}
        0x00102f52:    0000        ..      MOVS     r0,r0
    vTaskDelete
        0x00102f54:    b580        ..      PUSH     {r7,lr}
        0x00102f56:    b082        ..      SUB      sp,sp,#8
        0x00102f58:    9001        ..      STR      r0,[sp,#4]
        0x00102f5a:    f7fffe5f    .._.    BL       vPortEnterCritical ; 0x102c1c
        0x00102f5e:    9801        ..      LDR      r0,[sp,#4]
        0x00102f60:    b930        0.      CBNZ     r0,0x102f70 ; vTaskDelete + 28
        0x00102f62:    e7ff        ..      B        0x102f64 ; vTaskDelete + 16
        0x00102f64:    f2401000    @...    MOVW     r0,#0x100
        0x00102f68:    f2c20010    ....    MOVT     r0,#0x2010
        0x00102f6c:    6800        .h      LDR      r0,[r0,#0]
        0x00102f6e:    e001        ..      B        0x102f74 ; vTaskDelete + 32
        0x00102f70:    9801        ..      LDR      r0,[sp,#4]
        0x00102f72:    e7ff        ..      B        0x102f74 ; vTaskDelete + 32
        0x00102f74:    9000        ..      STR      r0,[sp,#0]
        0x00102f76:    9800        ..      LDR      r0,[sp,#0]
        0x00102f78:    3004        .0      ADDS     r0,#4
        0x00102f7a:    f7fffd0f    ....    BL       uxListRemove ; 0x10299c
        0x00102f7e:    b908        ..      CBNZ     r0,0x102f84 ; vTaskDelete + 48
        0x00102f80:    e7ff        ..      B        0x102f82 ; vTaskDelete + 46
        0x00102f82:    e000        ..      B        0x102f86 ; vTaskDelete + 50
        0x00102f84:    e7ff        ..      B        0x102f86 ; vTaskDelete + 50
        0x00102f86:    9800        ..      LDR      r0,[sp,#0]
        0x00102f88:    6a80        .j      LDR      r0,[r0,#0x28]
        0x00102f8a:    b128        (.      CBZ      r0,0x102f98 ; vTaskDelete + 68
        0x00102f8c:    e7ff        ..      B        0x102f8e ; vTaskDelete + 58
        0x00102f8e:    9800        ..      LDR      r0,[sp,#0]
        0x00102f90:    3018        .0      ADDS     r0,r0,#0x18
        0x00102f92:    f7fffd03    ....    BL       uxListRemove ; 0x10299c
        0x00102f96:    e000        ..      B        0x102f9a ; vTaskDelete + 70
        0x00102f98:    e7ff        ..      B        0x102f9a ; vTaskDelete + 70
        0x00102f9a:    f24010e0    @...    MOVW     r0,#0x1e0
        0x00102f9e:    f2c20010    ....    MOVT     r0,#0x2010
        0x00102fa2:    6801        .h      LDR      r1,[r0,#0]
        0x00102fa4:    3101        .1      ADDS     r1,#1
        0x00102fa6:    6001        .`      STR      r1,[r0,#0]
        0x00102fa8:    9800        ..      LDR      r0,[sp,#0]
        0x00102faa:    f2401100    @...    MOVW     r1,#0x100
        0x00102fae:    f2c20110    ....    MOVT     r1,#0x2010
        0x00102fb2:    6809        .h      LDR      r1,[r1,#0]
        0x00102fb4:    4288        .B      CMP      r0,r1
        0x00102fb6:    d10c        ..      BNE      0x102fd2 ; vTaskDelete + 126
        0x00102fb8:    e7ff        ..      B        0x102fba ; vTaskDelete + 102
        0x00102fba:    9800        ..      LDR      r0,[sp,#0]
        0x00102fbc:    3004        .0      ADDS     r0,#4
        0x00102fbe:    f7fffe0b    ....    BL       vListInsertEnd ; 0x102bd8
        0x00102fc2:    f2402050    @.P     MOVW     r0,#0x250
        0x00102fc6:    f2c20010    ....    MOVT     r0,#0x2010
        0x00102fca:    6801        .h      LDR      r1,[r0,#0]
        0x00102fcc:    3101        .1      ADDS     r1,#1
        0x00102fce:    6001        .`      STR      r1,[r0,#0]
        0x00102fd0:    e009        ..      B        0x102fe6 ; vTaskDelete + 146
        0x00102fd2:    f24010d8    @...    MOVW     r0,#0x1d8
        0x00102fd6:    f2c20010    ....    MOVT     r0,#0x2010
        0x00102fda:    6801        .h      LDR      r1,[r0,#0]
        0x00102fdc:    3901        .9      SUBS     r1,#1
        0x00102fde:    6001        .`      STR      r1,[r0,#0]
        0x00102fe0:    f7fff9f6    ....    BL       prvResetNextTaskUnblockTime ; 0x1023d0
        0x00102fe4:    e7ff        ..      B        0x102fe6 ; vTaskDelete + 146
        0x00102fe6:    f7fffe29    ..).    BL       vPortExitCritical ; 0x102c3c
        0x00102fea:    9800        ..      LDR      r0,[sp,#0]
        0x00102fec:    f2401100    @...    MOVW     r1,#0x100
        0x00102ff0:    f2c20110    ....    MOVT     r1,#0x2010
        0x00102ff4:    6809        .h      LDR      r1,[r1,#0]
        0x00102ff6:    4288        .B      CMP      r0,r1
        0x00102ff8:    d004        ..      BEQ      0x103004 ; vTaskDelete + 176
        0x00102ffa:    e7ff        ..      B        0x102ffc ; vTaskDelete + 168
        0x00102ffc:    9800        ..      LDR      r0,[sp,#0]
        0x00102ffe:    f7fefe35    ..5.    BL       prvDeleteTCB ; 0x101c6c
        0x00103002:    e7ff        ..      B        0x103004 ; vTaskDelete + 176
        0x00103004:    f24010dc    @...    MOVW     r0,#0x1dc
        0x00103008:    f2c20010    ....    MOVT     r0,#0x2010
        0x0010300c:    6800        .h      LDR      r0,[r0,#0]
        0x0010300e:    b1c8        ..      CBZ      r0,0x103044 ; vTaskDelete + 240
        0x00103010:    e7ff        ..      B        0x103012 ; vTaskDelete + 190
        0x00103012:    9800        ..      LDR      r0,[sp,#0]
        0x00103014:    f2401100    @...    MOVW     r1,#0x100
        0x00103018:    f2c20110    ....    MOVT     r1,#0x2010
        0x0010301c:    6809        .h      LDR      r1,[r1,#0]
        0x0010301e:    4288        .B      CMP      r0,r1
        0x00103020:    d10e        ..      BNE      0x103040 ; vTaskDelete + 236
        0x00103022:    e7ff        ..      B        0x103024 ; vTaskDelete + 208
        0x00103024:    f2401004    @...    MOVW     r0,#0x104
        0x00103028:    f2c20010    ....    MOVT     r0,#0x2010
        0x0010302c:    6800        .h      LDR      r0,[r0,#0]
        0x0010302e:    b120         .      CBZ      r0,0x10303a ; vTaskDelete + 230
        0x00103030:    e7ff        ..      B        0x103032 ; vTaskDelete + 222
        0x00103032:    f7fffca7    ....    BL       ulSetInterruptMask ; 0x102984
        0x00103036:    e7ff        ..      B        0x103038 ; vTaskDelete + 228
        0x00103038:    e7fe        ..      B        0x103038 ; vTaskDelete + 228
        0x0010303a:    f7fffef3    ....    BL       vPortYield ; 0x102e24
        0x0010303e:    e000        ..      B        0x103042 ; vTaskDelete + 238
        0x00103040:    e7ff        ..      B        0x103042 ; vTaskDelete + 238
        0x00103042:    e7ff        ..      B        0x103044 ; vTaskDelete + 240
        0x00103044:    b002        ..      ADD      sp,sp,#8
        0x00103046:    bd80        ..      POP      {r7,pc}
    vTaskInternalSetTimeOutState
        0x00103048:    b081        ..      SUB      sp,sp,#4
        0x0010304a:    9000        ..      STR      r0,[sp,#0]
        0x0010304c:    f2402060    @.`     MOVW     r0,#0x260
        0x00103050:    f2c20010    ....    MOVT     r0,#0x2010
        0x00103054:    6800        .h      LDR      r0,[r0,#0]
        0x00103056:    9900        ..      LDR      r1,[sp,#0]
        0x00103058:    6008        .`      STR      r0,[r1,#0]
        0x0010305a:    f2402058    @.X     MOVW     r0,#0x258
        0x0010305e:    f2c20010    ....    MOVT     r0,#0x2010
        0x00103062:    6800        .h      LDR      r0,[r0,#0]
        0x00103064:    9900        ..      LDR      r1,[sp,#0]
        0x00103066:    6048        H`      STR      r0,[r1,#4]
        0x00103068:    b001        ..      ADD      sp,sp,#4
        0x0010306a:    4770        pG      BX       lr
    vTaskMissedYield
        0x0010306c:    f2401008    @...    MOVW     r0,#0x108
        0x00103070:    f2c20010    ....    MOVT     r0,#0x2010
        0x00103074:    2101        .!      MOVS     r1,#1
        0x00103076:    6001        .`      STR      r1,[r0,#0]
        0x00103078:    4770        pG      BX       lr
        0x0010307a:    0000        ..      MOVS     r0,r0
    vTaskPlaceOnEventList
        0x0010307c:    b580        ..      PUSH     {r7,lr}
        0x0010307e:    b082        ..      SUB      sp,sp,#8
        0x00103080:    9001        ..      STR      r0,[sp,#4]
        0x00103082:    9100        ..      STR      r1,[sp,#0]
        0x00103084:    9801        ..      LDR      r0,[sp,#4]
        0x00103086:    b920         .      CBNZ     r0,0x103092 ; vTaskPlaceOnEventList + 22
        0x00103088:    e7ff        ..      B        0x10308a ; vTaskPlaceOnEventList + 14
        0x0010308a:    f7fffc7b    ..{.    BL       ulSetInterruptMask ; 0x102984
        0x0010308e:    e7ff        ..      B        0x103090 ; vTaskPlaceOnEventList + 20
        0x00103090:    e7fe        ..      B        0x103090 ; vTaskPlaceOnEventList + 20
        0x00103092:    9801        ..      LDR      r0,[sp,#4]
        0x00103094:    f2401100    @...    MOVW     r1,#0x100
        0x00103098:    f2c20110    ....    MOVT     r1,#0x2010
        0x0010309c:    6809        .h      LDR      r1,[r1,#0]
        0x0010309e:    3118        .1      ADDS     r1,r1,#0x18
        0x001030a0:    f7fffd64    ..d.    BL       vListInsert ; 0x102b6c
        0x001030a4:    9800        ..      LDR      r0,[sp,#0]
        0x001030a6:    2101        .!      MOVS     r1,#1
        0x001030a8:    f7fefc38    ..8.    BL       prvAddCurrentTaskToDelayedList ; 0x10191c
        0x001030ac:    b002        ..      ADD      sp,sp,#8
        0x001030ae:    bd80        ..      POP      {r7,pc}
    vTaskPlaceOnEventListRestricted
        0x001030b0:    b580        ..      PUSH     {r7,lr}
        0x001030b2:    b084        ..      SUB      sp,sp,#0x10
        0x001030b4:    9003        ..      STR      r0,[sp,#0xc]
        0x001030b6:    9102        ..      STR      r1,[sp,#8]
        0x001030b8:    9201        ..      STR      r2,[sp,#4]
        0x001030ba:    9803        ..      LDR      r0,[sp,#0xc]
        0x001030bc:    b920         .      CBNZ     r0,0x1030c8 ; vTaskPlaceOnEventListRestricted + 24
        0x001030be:    e7ff        ..      B        0x1030c0 ; vTaskPlaceOnEventListRestricted + 16
        0x001030c0:    f7fffc60    ..`.    BL       ulSetInterruptMask ; 0x102984
        0x001030c4:    e7ff        ..      B        0x1030c6 ; vTaskPlaceOnEventListRestricted + 22
        0x001030c6:    e7fe        ..      B        0x1030c6 ; vTaskPlaceOnEventListRestricted + 22
        0x001030c8:    9803        ..      LDR      r0,[sp,#0xc]
        0x001030ca:    6840        @h      LDR      r0,[r0,#4]
        0x001030cc:    9000        ..      STR      r0,[sp,#0]
        0x001030ce:    9800        ..      LDR      r0,[sp,#0]
        0x001030d0:    f2401100    @...    MOVW     r1,#0x100
        0x001030d4:    f2c20110    ....    MOVT     r1,#0x2010
        0x001030d8:    680a        .h      LDR      r2,[r1,#0]
        0x001030da:    61d0        .a      STR      r0,[r2,#0x1c]
        0x001030dc:    9800        ..      LDR      r0,[sp,#0]
        0x001030de:    6880        .h      LDR      r0,[r0,#8]
        0x001030e0:    680a        .h      LDR      r2,[r1,#0]
        0x001030e2:    6210        .b      STR      r0,[r2,#0x20]
        0x001030e4:    6808        .h      LDR      r0,[r1,#0]
        0x001030e6:    3018        .0      ADDS     r0,r0,#0x18
        0x001030e8:    9a00        ..      LDR      r2,[sp,#0]
        0x001030ea:    6892        .h      LDR      r2,[r2,#8]
        0x001030ec:    6050        P`      STR      r0,[r2,#4]
        0x001030ee:    6808        .h      LDR      r0,[r1,#0]
        0x001030f0:    3018        .0      ADDS     r0,r0,#0x18
        0x001030f2:    9a00        ..      LDR      r2,[sp,#0]
        0x001030f4:    6090        .`      STR      r0,[r2,#8]
        0x001030f6:    9803        ..      LDR      r0,[sp,#0xc]
        0x001030f8:    6809        .h      LDR      r1,[r1,#0]
        0x001030fa:    6288        .b      STR      r0,[r1,#0x28]
        0x001030fc:    9803        ..      LDR      r0,[sp,#0xc]
        0x001030fe:    6801        .h      LDR      r1,[r0,#0]
        0x00103100:    3101        .1      ADDS     r1,#1
        0x00103102:    6001        .`      STR      r1,[r0,#0]
        0x00103104:    9801        ..      LDR      r0,[sp,#4]
        0x00103106:    b120         .      CBZ      r0,0x103112 ; vTaskPlaceOnEventListRestricted + 98
        0x00103108:    e7ff        ..      B        0x10310a ; vTaskPlaceOnEventListRestricted + 90
        0x0010310a:    f04f30ff    O..0    MOV      r0,#0xffffffff
        0x0010310e:    9002        ..      STR      r0,[sp,#8]
        0x00103110:    e7ff        ..      B        0x103112 ; vTaskPlaceOnEventListRestricted + 98
        0x00103112:    9802        ..      LDR      r0,[sp,#8]
        0x00103114:    9901        ..      LDR      r1,[sp,#4]
        0x00103116:    f7fefc01    ....    BL       prvAddCurrentTaskToDelayedList ; 0x10191c
        0x0010311a:    b004        ..      ADD      sp,sp,#0x10
        0x0010311c:    bd80        ..      POP      {r7,pc}
        0x0010311e:    0000        ..      MOVS     r0,r0
    vTaskStartScheduler
        0x00103120:    b580        ..      PUSH     {r7,lr}
        0x00103122:    b086        ..      SUB      sp,sp,#0x18
        0x00103124:    2000        .       MOVS     r0,#0
        0x00103126:    9004        ..      STR      r0,[sp,#0x10]
        0x00103128:    9003        ..      STR      r0,[sp,#0xc]
        0x0010312a:    a804        ..      ADD      r0,sp,#0x10
        0x0010312c:    a903        ..      ADD      r1,sp,#0xc
        0x0010312e:    aa02        ..      ADD      r2,sp,#8
        0x00103130:    f7fffc58    ..X.    BL       vApplicationGetIdleTaskMemory ; 0x1029e4
        0x00103134:    9a02        ..      LDR      r2,[sp,#8]
        0x00103136:    9803        ..      LDR      r0,[sp,#0xc]
        0x00103138:    9904        ..      LDR      r1,[sp,#0x10]
        0x0010313a:    9101        ..      STR      r1,[sp,#4]
        0x0010313c:    9000        ..      STR      r0,[sp,#0]
        0x0010313e:    f64150c1    A..P    MOV      r0,#0x1dc1
        0x00103142:    f2c00010    ....    MOVT     r0,#0x10
        0x00103146:    f6442123    D.#!    MOV      r1,#0x4a23
        0x0010314a:    f2c00110    ....    MOVT     r1,#0x10
        0x0010314e:    2300        .#      MOVS     r3,#0
        0x00103150:    f000fb34    ..4.    BL       xTaskCreateStatic ; 0x1037bc
        0x00103154:    f2402164    @.d!    MOVW     r1,#0x264
        0x00103158:    f2c20110    ....    MOVT     r1,#0x2010
        0x0010315c:    6008        .`      STR      r0,[r1,#0]
        0x0010315e:    6808        .h      LDR      r0,[r1,#0]
        0x00103160:    b118        ..      CBZ      r0,0x10316a ; vTaskStartScheduler + 74
        0x00103162:    e7ff        ..      B        0x103164 ; vTaskStartScheduler + 68
        0x00103164:    2001        .       MOVS     r0,#1
        0x00103166:    9005        ..      STR      r0,[sp,#0x14]
        0x00103168:    e002        ..      B        0x103170 ; vTaskStartScheduler + 80
        0x0010316a:    2000        .       MOVS     r0,#0
        0x0010316c:    9005        ..      STR      r0,[sp,#0x14]
        0x0010316e:    e7ff        ..      B        0x103170 ; vTaskStartScheduler + 80
        0x00103170:    9805        ..      LDR      r0,[sp,#0x14]
        0x00103172:    2801        .(      CMP      r0,#1
        0x00103174:    d104        ..      BNE      0x103180 ; vTaskStartScheduler + 96
        0x00103176:    e7ff        ..      B        0x103178 ; vTaskStartScheduler + 88
        0x00103178:    f000fea8    ....    BL       xTimerCreateTimerTask ; 0x103ecc
        0x0010317c:    9005        ..      STR      r0,[sp,#0x14]
        0x0010317e:    e000        ..      B        0x103182 ; vTaskStartScheduler + 98
        0x00103180:    e7ff        ..      B        0x103182 ; vTaskStartScheduler + 98
        0x00103182:    9805        ..      LDR      r0,[sp,#0x14]
        0x00103184:    2801        .(      CMP      r0,#1
        0x00103186:    d11a        ..      BNE      0x1031be ; vTaskStartScheduler + 158
        0x00103188:    e7ff        ..      B        0x10318a ; vTaskStartScheduler + 106
        0x0010318a:    f7fffbfb    ....    BL       ulSetInterruptMask ; 0x102984
        0x0010318e:    f2402054    @.T     MOVW     r0,#0x254
        0x00103192:    f2c20010    ....    MOVT     r0,#0x2010
        0x00103196:    f04f31ff    O..1    MOV      r1,#0xffffffff
        0x0010319a:    6001        .`      STR      r1,[r0,#0]
        0x0010319c:    f24010dc    @...    MOVW     r0,#0x1dc
        0x001031a0:    f2c20010    ....    MOVT     r0,#0x2010
        0x001031a4:    2101        .!      MOVS     r1,#1
        0x001031a6:    6001        .`      STR      r1,[r0,#0]
        0x001031a8:    f2402058    @.X     MOVW     r0,#0x258
        0x001031ac:    f2c20010    ....    MOVT     r0,#0x2010
        0x001031b0:    2100        .!      MOVS     r1,#0
        0x001031b2:    6001        .`      STR      r1,[r0,#0]
        0x001031b4:    f000f8a6    ....    BL       xPortStartScheduler ; 0x103304
        0x001031b8:    e7ff        ..      B        0x1031ba ; vTaskStartScheduler + 154
        0x001031ba:    e7ff        ..      B        0x1031bc ; vTaskStartScheduler + 156
        0x001031bc:    e008        ..      B        0x1031d0 ; vTaskStartScheduler + 176
        0x001031be:    9805        ..      LDR      r0,[sp,#0x14]
        0x001031c0:    3001        .0      ADDS     r0,#1
        0x001031c2:    b920         .      CBNZ     r0,0x1031ce ; vTaskStartScheduler + 174
        0x001031c4:    e7ff        ..      B        0x1031c6 ; vTaskStartScheduler + 166
        0x001031c6:    f7fffbdd    ....    BL       ulSetInterruptMask ; 0x102984
        0x001031ca:    e7ff        ..      B        0x1031cc ; vTaskStartScheduler + 172
        0x001031cc:    e7fe        ..      B        0x1031cc ; vTaskStartScheduler + 172
        0x001031ce:    e7ff        ..      B        0x1031d0 ; vTaskStartScheduler + 176
        0x001031d0:    f644008c    D...    MOV      r0,#0x488c
        0x001031d4:    f2c00010    ....    MOVT     r0,#0x10
        0x001031d8:    6800        .h      LDR      r0,[r0,#0]
        0x001031da:    b006        ..      ADD      sp,sp,#0x18
        0x001031dc:    bd80        ..      POP      {r7,pc}
        0x001031de:    0000        ..      MOVS     r0,r0
    vTaskSuspendAll
        0x001031e0:    f2401004    @...    MOVW     r0,#0x104
        0x001031e4:    f2c20010    ....    MOVT     r0,#0x2010
        0x001031e8:    6801        .h      LDR      r1,[r0,#0]
        0x001031ea:    3101        .1      ADDS     r1,#1
        0x001031ec:    6001        .`      STR      r1,[r0,#0]
        0x001031ee:    4770        pG      BX       lr
    __tagsym$$used.0
    vTaskSwitchContext
        0x001031f0:    b580        ..      PUSH     {r7,lr}
        0x001031f2:    b084        ..      SUB      sp,sp,#0x10
        0x001031f4:    f2401004    @...    MOVW     r0,#0x104
        0x001031f8:    f2c20010    ....    MOVT     r0,#0x2010
        0x001031fc:    6800        .h      LDR      r0,[r0,#0]
        0x001031fe:    b138        8.      CBZ      r0,0x103210 ; vTaskSwitchContext + 32
        0x00103200:    e7ff        ..      B        0x103202 ; vTaskSwitchContext + 18
        0x00103202:    f2401008    @...    MOVW     r0,#0x108
        0x00103206:    f2c20010    ....    MOVT     r0,#0x2010
        0x0010320a:    2101        .!      MOVS     r1,#1
        0x0010320c:    6001        .`      STR      r1,[r0,#0]
        0x0010320e:    e076        v.      B        0x1032fe ; vTaskSwitchContext + 270
        0x00103210:    f2401008    @...    MOVW     r0,#0x108
        0x00103214:    f2c20010    ....    MOVT     r0,#0x2010
        0x00103218:    2100        .!      MOVS     r1,#0
        0x0010321a:    6001        .`      STR      r1,[r0,#0]
        0x0010321c:    f2401000    @...    MOVW     r0,#0x100
        0x00103220:    f2c20010    ....    MOVT     r0,#0x2010
        0x00103224:    6800        .h      LDR      r0,[r0,#0]
        0x00103226:    6b00        .k      LDR      r0,[r0,#0x30]
        0x00103228:    9003        ..      STR      r0,[sp,#0xc]
        0x0010322a:    f04f30a5    O..0    MOV      r0,#0xa5a5a5a5
        0x0010322e:    9002        ..      STR      r0,[sp,#8]
        0x00103230:    9803        ..      LDR      r0,[sp,#0xc]
        0x00103232:    6800        .h      LDR      r0,[r0,#0]
        0x00103234:    f1b03fa5    ...?    CMP      r0,#0xa5a5a5a5
        0x00103238:    d112        ..      BNE      0x103260 ; vTaskSwitchContext + 112
        0x0010323a:    e7ff        ..      B        0x10323c ; vTaskSwitchContext + 76
        0x0010323c:    9803        ..      LDR      r0,[sp,#0xc]
        0x0010323e:    6840        @h      LDR      r0,[r0,#4]
        0x00103240:    f1b03fa5    ...?    CMP      r0,#0xa5a5a5a5
        0x00103244:    d10c        ..      BNE      0x103260 ; vTaskSwitchContext + 112
        0x00103246:    e7ff        ..      B        0x103248 ; vTaskSwitchContext + 88
        0x00103248:    9803        ..      LDR      r0,[sp,#0xc]
        0x0010324a:    6880        .h      LDR      r0,[r0,#8]
        0x0010324c:    f1b03fa5    ...?    CMP      r0,#0xa5a5a5a5
        0x00103250:    d106        ..      BNE      0x103260 ; vTaskSwitchContext + 112
        0x00103252:    e7ff        ..      B        0x103254 ; vTaskSwitchContext + 100
        0x00103254:    9803        ..      LDR      r0,[sp,#0xc]
        0x00103256:    68c0        .h      LDR      r0,[r0,#0xc]
        0x00103258:    f1b03fa5    ...?    CMP      r0,#0xa5a5a5a5
        0x0010325c:    d00a        ..      BEQ      0x103274 ; vTaskSwitchContext + 132
        0x0010325e:    e7ff        ..      B        0x103260 ; vTaskSwitchContext + 112
        0x00103260:    f2401100    @...    MOVW     r1,#0x100
        0x00103264:    f2c20110    ....    MOVT     r1,#0x2010
        0x00103268:    6808        .h      LDR      r0,[r1,#0]
        0x0010326a:    6809        .h      LDR      r1,[r1,#0]
        0x0010326c:    3134        41      ADDS     r1,r1,#0x34
        0x0010326e:    f7fffc11    ....    BL       vApplicationStackOverflowHook ; 0x102a94
        0x00103272:    e7ff        ..      B        0x103274 ; vTaskSwitchContext + 132
        0x00103274:    f240100c    @...    MOVW     r0,#0x10c
        0x00103278:    f2c20010    ....    MOVT     r0,#0x2010
        0x0010327c:    6800        .h      LDR      r0,[r0,#0]
        0x0010327e:    9001        ..      STR      r0,[sp,#4]
        0x00103280:    e7ff        ..      B        0x103282 ; vTaskSwitchContext + 146
        0x00103282:    9801        ..      LDR      r0,[sp,#4]
        0x00103284:    eb000080    ....    ADD      r0,r0,r0,LSL #2
        0x00103288:    f2401110    @...    MOVW     r1,#0x110
        0x0010328c:    f2c20110    ....    MOVT     r1,#0x2010
        0x00103290:    f8510020    Q. .    LDR      r0,[r1,r0,LSL #2]
        0x00103294:    b958        X.      CBNZ     r0,0x1032ae ; vTaskSwitchContext + 190
        0x00103296:    e7ff        ..      B        0x103298 ; vTaskSwitchContext + 168
        0x00103298:    9801        ..      LDR      r0,[sp,#4]
        0x0010329a:    b920         .      CBNZ     r0,0x1032a6 ; vTaskSwitchContext + 182
        0x0010329c:    e7ff        ..      B        0x10329e ; vTaskSwitchContext + 174
        0x0010329e:    f7fffb71    ..q.    BL       ulSetInterruptMask ; 0x102984
        0x001032a2:    e7ff        ..      B        0x1032a4 ; vTaskSwitchContext + 180
        0x001032a4:    e7fe        ..      B        0x1032a4 ; vTaskSwitchContext + 180
        0x001032a6:    9801        ..      LDR      r0,[sp,#4]
        0x001032a8:    3801        .8      SUBS     r0,#1
        0x001032aa:    9001        ..      STR      r0,[sp,#4]
        0x001032ac:    e7e9        ..      B        0x103282 ; vTaskSwitchContext + 146
        0x001032ae:    9801        ..      LDR      r0,[sp,#4]
        0x001032b0:    eb000080    ....    ADD      r0,r0,r0,LSL #2
        0x001032b4:    f2401110    @...    MOVW     r1,#0x110
        0x001032b8:    f2c20110    ....    MOVT     r1,#0x2010
        0x001032bc:    eb010080    ....    ADD      r0,r1,r0,LSL #2
        0x001032c0:    9000        ..      STR      r0,[sp,#0]
        0x001032c2:    9800        ..      LDR      r0,[sp,#0]
        0x001032c4:    6841        Ah      LDR      r1,[r0,#4]
        0x001032c6:    6849        Ih      LDR      r1,[r1,#4]
        0x001032c8:    6041        A`      STR      r1,[r0,#4]
        0x001032ca:    9800        ..      LDR      r0,[sp,#0]
        0x001032cc:    6841        Ah      LDR      r1,[r0,#4]
        0x001032ce:    3008        .0      ADDS     r0,r0,#8
        0x001032d0:    4281        .B      CMP      r1,r0
        0x001032d2:    d105        ..      BNE      0x1032e0 ; vTaskSwitchContext + 240
        0x001032d4:    e7ff        ..      B        0x1032d6 ; vTaskSwitchContext + 230
        0x001032d6:    9800        ..      LDR      r0,[sp,#0]
        0x001032d8:    6841        Ah      LDR      r1,[r0,#4]
        0x001032da:    6849        Ih      LDR      r1,[r1,#4]
        0x001032dc:    6041        A`      STR      r1,[r0,#4]
        0x001032de:    e7ff        ..      B        0x1032e0 ; vTaskSwitchContext + 240
        0x001032e0:    9800        ..      LDR      r0,[sp,#0]
        0x001032e2:    6840        @h      LDR      r0,[r0,#4]
        0x001032e4:    68c0        .h      LDR      r0,[r0,#0xc]
        0x001032e6:    f2401100    @...    MOVW     r1,#0x100
        0x001032ea:    f2c20110    ....    MOVT     r1,#0x2010
        0x001032ee:    6008        .`      STR      r0,[r1,#0]
        0x001032f0:    9801        ..      LDR      r0,[sp,#4]
        0x001032f2:    f240110c    @...    MOVW     r1,#0x10c
        0x001032f6:    f2c20110    ....    MOVT     r1,#0x2010
        0x001032fa:    6008        .`      STR      r0,[r1,#0]
        0x001032fc:    e7ff        ..      B        0x1032fe ; vTaskSwitchContext + 270
        0x001032fe:    b004        ..      ADD      sp,sp,#0x10
        0x00103300:    bd80        ..      POP      {r7,pc}
        0x00103302:    0000        ..      MOVS     r0,r0
    xPortStartScheduler
        0x00103304:    b580        ..      PUSH     {r7,lr}
        0x00103306:    f64e5020    N. P    MOV      r0,#0xed20
        0x0010330a:    f2ce0000    ....    MOVT     r0,#0xe000
        0x0010330e:    6801        .h      LDR      r1,[r0,#0]
        0x00103310:    f441017f    A...    ORR      r1,r1,#0xff0000
        0x00103314:    6001        .`      STR      r1,[r0,#0]
        0x00103316:    6801        .h      LDR      r1,[r0,#0]
        0x00103318:    f041417f    A..A    ORR      r1,r1,#0xff000000
        0x0010331c:    6001        .`      STR      r1,[r0,#0]
        0x0010331e:    f7fffd69    ..i.    BL       vPortSetupTimerInterrupt ; 0x102df4
        0x00103322:    f2400000    @...    MOVW     r0,#0
        0x00103326:    f2c20010    ....    MOVT     r0,#0x2010
        0x0010332a:    2100        .!      MOVS     r1,#0
        0x0010332c:    6001        .`      STR      r1,[r0,#0]
        0x0010332e:    f7fffdd7    ....    BL       vStartFirstTask ; 0x102ee0
        0x00103332:    f7ffff5d    ..].    BL       vTaskSwitchContext ; 0x1031f0
        0x00103336:    f7fff8c9    ....    BL       prvTaskExitError ; 0x1024cc
        0x0010333a:    bd80        ..      POP      {r7,pc}
    xQueueGenericCreateStatic
        0x0010333c:    b580        ..      PUSH     {r7,lr}
        0x0010333e:    b088        ..      SUB      sp,sp,#0x20
        0x00103340:    2005        .       MOVS     r0,#5
        0x00103342:    9007        ..      STR      r0,[sp,#0x1c]
        0x00103344:    2010        .       MOVS     r0,#0x10
        0x00103346:    9006        ..      STR      r0,[sp,#0x18]
        0x00103348:    f24020a4    @..     MOVW     r0,#0x2a4
        0x0010334c:    f2c20010    ....    MOVT     r0,#0x2010
        0x00103350:    9005        ..      STR      r0,[sp,#0x14]
        0x00103352:    f24020f4    @..     MOVW     r0,#0x2f4
        0x00103356:    f2c20010    ....    MOVT     r0,#0x2010
        0x0010335a:    9004        ..      STR      r0,[sp,#0x10]
        0x0010335c:    2000        .       MOVS     r0,#0
        0x0010335e:    f88d000f    ....    STRB     r0,[sp,#0xf]
        0x00103362:    9002        ..      STR      r0,[sp,#8]
        0x00103364:    9804        ..      LDR      r0,[sp,#0x10]
        0x00103366:    b920         .      CBNZ     r0,0x103372 ; xQueueGenericCreateStatic + 54
        0x00103368:    e7ff        ..      B        0x10336a ; xQueueGenericCreateStatic + 46
        0x0010336a:    f7fffb0b    ....    BL       ulSetInterruptMask ; 0x102984
        0x0010336e:    e7ff        ..      B        0x103370 ; xQueueGenericCreateStatic + 52
        0x00103370:    e7fe        ..      B        0x103370 ; xQueueGenericCreateStatic + 52
        0x00103372:    9807        ..      LDR      r0,[sp,#0x1c]
        0x00103374:    b360        `.      CBZ      r0,0x1033d0 ; xQueueGenericCreateStatic + 148
        0x00103376:    e7ff        ..      B        0x103378 ; xQueueGenericCreateStatic + 60
        0x00103378:    9804        ..      LDR      r0,[sp,#0x10]
        0x0010337a:    b348        H.      CBZ      r0,0x1033d0 ; xQueueGenericCreateStatic + 148
        0x0010337c:    e7ff        ..      B        0x10337e ; xQueueGenericCreateStatic + 66
        0x0010337e:    9805        ..      LDR      r0,[sp,#0x14]
        0x00103380:    b118        ..      CBZ      r0,0x10338a ; xQueueGenericCreateStatic + 78
        0x00103382:    e7ff        ..      B        0x103384 ; xQueueGenericCreateStatic + 72
        0x00103384:    9806        ..      LDR      r0,[sp,#0x18]
        0x00103386:    b318        ..      CBZ      r0,0x1033d0 ; xQueueGenericCreateStatic + 148
        0x00103388:    e7ff        ..      B        0x10338a ; xQueueGenericCreateStatic + 78
        0x0010338a:    9805        ..      LDR      r0,[sp,#0x14]
        0x0010338c:    b918        ..      CBNZ     r0,0x103396 ; xQueueGenericCreateStatic + 90
        0x0010338e:    e7ff        ..      B        0x103390 ; xQueueGenericCreateStatic + 84
        0x00103390:    9806        ..      LDR      r0,[sp,#0x18]
        0x00103392:    b9e8        ..      CBNZ     r0,0x1033d0 ; xQueueGenericCreateStatic + 148
        0x00103394:    e7ff        ..      B        0x103396 ; xQueueGenericCreateStatic + 90
        0x00103396:    2050        P       MOVS     r0,#0x50
        0x00103398:    9001        ..      STR      r0,[sp,#4]
        0x0010339a:    9801        ..      LDR      r0,[sp,#4]
        0x0010339c:    2850        P(      CMP      r0,#0x50
        0x0010339e:    d004        ..      BEQ      0x1033aa ; xQueueGenericCreateStatic + 110
        0x001033a0:    e7ff        ..      B        0x1033a2 ; xQueueGenericCreateStatic + 102
        0x001033a2:    f7fffaef    ....    BL       ulSetInterruptMask ; 0x102984
        0x001033a6:    e7ff        ..      B        0x1033a8 ; xQueueGenericCreateStatic + 108
        0x001033a8:    e7fe        ..      B        0x1033a8 ; xQueueGenericCreateStatic + 108
        0x001033aa:    9801        ..      LDR      r0,[sp,#4]
        0x001033ac:    9804        ..      LDR      r0,[sp,#0x10]
        0x001033ae:    9002        ..      STR      r0,[sp,#8]
        0x001033b0:    9802        ..      LDR      r0,[sp,#8]
        0x001033b2:    2101        .!      MOVS     r1,#1
        0x001033b4:    f8801046    ..F.    STRB     r1,[r0,#0x46]
        0x001033b8:    9807        ..      LDR      r0,[sp,#0x1c]
        0x001033ba:    9906        ..      LDR      r1,[sp,#0x18]
        0x001033bc:    9a05        ..      LDR      r2,[sp,#0x14]
        0x001033be:    f89d300f    ...0    LDRB     r3,[sp,#0xf]
        0x001033c2:    f8ddc008    ....    LDR      r12,[sp,#8]
        0x001033c6:    f8cdc000    ....    STR      r12,[sp,#0]
        0x001033ca:    f7fefd11    ....    BL       prvInitialiseNewQueue ; 0x101df0
        0x001033ce:    e007        ..      B        0x1033e0 ; xQueueGenericCreateStatic + 164
        0x001033d0:    9802        ..      LDR      r0,[sp,#8]
        0x001033d2:    b920         .      CBNZ     r0,0x1033de ; xQueueGenericCreateStatic + 162
        0x001033d4:    e7ff        ..      B        0x1033d6 ; xQueueGenericCreateStatic + 154
        0x001033d6:    f7fffad5    ....    BL       ulSetInterruptMask ; 0x102984
        0x001033da:    e7ff        ..      B        0x1033dc ; xQueueGenericCreateStatic + 160
        0x001033dc:    e7fe        ..      B        0x1033dc ; xQueueGenericCreateStatic + 160
        0x001033de:    e7ff        ..      B        0x1033e0 ; xQueueGenericCreateStatic + 164
        0x001033e0:    9802        ..      LDR      r0,[sp,#8]
        0x001033e2:    b008        ..      ADD      sp,sp,#0x20
        0x001033e4:    bd80        ..      POP      {r7,pc}
        0x001033e6:    0000        ..      MOVS     r0,r0
    xQueueGenericReset
        0x001033e8:    b580        ..      PUSH     {r7,lr}
        0x001033ea:    b084        ..      SUB      sp,sp,#0x10
        0x001033ec:    9003        ..      STR      r0,[sp,#0xc]
        0x001033ee:    2001        .       MOVS     r0,#1
        0x001033f0:    9002        ..      STR      r0,[sp,#8]
        0x001033f2:    9001        ..      STR      r0,[sp,#4]
        0x001033f4:    9803        ..      LDR      r0,[sp,#0xc]
        0x001033f6:    9000        ..      STR      r0,[sp,#0]
        0x001033f8:    9800        ..      LDR      r0,[sp,#0]
        0x001033fa:    b920         .      CBNZ     r0,0x103406 ; xQueueGenericReset + 30
        0x001033fc:    e7ff        ..      B        0x1033fe ; xQueueGenericReset + 22
        0x001033fe:    f7fffac1    ....    BL       ulSetInterruptMask ; 0x102984
        0x00103402:    e7ff        ..      B        0x103404 ; xQueueGenericReset + 28
        0x00103404:    e7fe        ..      B        0x103404 ; xQueueGenericReset + 28
        0x00103406:    9800        ..      LDR      r0,[sp,#0]
        0x00103408:    2800        .(      CMP      r0,#0
        0x0010340a:    d04d        M.      BEQ      0x1034a8 ; xQueueGenericReset + 192
        0x0010340c:    e7ff        ..      B        0x10340e ; xQueueGenericReset + 38
        0x0010340e:    9800        ..      LDR      r0,[sp,#0]
        0x00103410:    6bc0        .k      LDR      r0,[r0,#0x3c]
        0x00103412:    2800        .(      CMP      r0,#0
        0x00103414:    d048        H.      BEQ      0x1034a8 ; xQueueGenericReset + 192
        0x00103416:    e7ff        ..      B        0x103418 ; xQueueGenericReset + 48
        0x00103418:    9800        ..      LDR      r0,[sp,#0]
        0x0010341a:    6bc1        .k      LDR      r1,[r0,#0x3c]
        0x0010341c:    6c00        .l      LDR      r0,[r0,#0x40]
        0x0010341e:    f04f32ff    O..2    MOV      r2,#0xffffffff
        0x00103422:    fbb2f1f1    ....    UDIV     r1,r2,r1
        0x00103426:    4281        .B      CMP      r1,r0
        0x00103428:    d33e        >.      BCC      0x1034a8 ; xQueueGenericReset + 192
        0x0010342a:    e7ff        ..      B        0x10342c ; xQueueGenericReset + 68
        0x0010342c:    f7fffbf6    ....    BL       vPortEnterCritical ; 0x102c1c
        0x00103430:    9800        ..      LDR      r0,[sp,#0]
        0x00103432:    6801        .h      LDR      r1,[r0,#0]
        0x00103434:    6bc2        .k      LDR      r2,[r0,#0x3c]
        0x00103436:    6c03        .l      LDR      r3,[r0,#0x40]
        0x00103438:    fb021103    ....    MLA      r1,r2,r3,r1
        0x0010343c:    6081        .`      STR      r1,[r0,#8]
        0x0010343e:    9800        ..      LDR      r0,[sp,#0]
        0x00103440:    2100        .!      MOVS     r1,#0
        0x00103442:    6381        .c      STR      r1,[r0,#0x38]
        0x00103444:    9800        ..      LDR      r0,[sp,#0]
        0x00103446:    6801        .h      LDR      r1,[r0,#0]
        0x00103448:    6041        A`      STR      r1,[r0,#4]
        0x0010344a:    9800        ..      LDR      r0,[sp,#0]
        0x0010344c:    6801        .h      LDR      r1,[r0,#0]
        0x0010344e:    6bc2        .k      LDR      r2,[r0,#0x3c]
        0x00103450:    6c03        .l      LDR      r3,[r0,#0x40]
        0x00103452:    3a01        .:      SUBS     r2,#1
        0x00103454:    fb021103    ....    MLA      r1,r2,r3,r1
        0x00103458:    60c1        .`      STR      r1,[r0,#0xc]
        0x0010345a:    9800        ..      LDR      r0,[sp,#0]
        0x0010345c:    21ff        .!      MOVS     r1,#0xff
        0x0010345e:    f8801044    ..D.    STRB     r1,[r0,#0x44]
        0x00103462:    9800        ..      LDR      r0,[sp,#0]
        0x00103464:    f8801045    ..E.    STRB     r1,[r0,#0x45]
        0x00103468:    9802        ..      LDR      r0,[sp,#8]
        0x0010346a:    b988        ..      CBNZ     r0,0x103490 ; xQueueGenericReset + 168
        0x0010346c:    e7ff        ..      B        0x10346e ; xQueueGenericReset + 134
        0x0010346e:    9800        ..      LDR      r0,[sp,#0]
        0x00103470:    6900        .i      LDR      r0,[r0,#0x10]
        0x00103472:    b158        X.      CBZ      r0,0x10348c ; xQueueGenericReset + 164
        0x00103474:    e7ff        ..      B        0x103476 ; xQueueGenericReset + 142
        0x00103476:    9800        ..      LDR      r0,[sp,#0]
        0x00103478:    3010        .0      ADDS     r0,r0,#0x10
        0x0010347a:    f000fb59    ..Y.    BL       xTaskRemoveFromEventList ; 0x103b30
        0x0010347e:    b118        ..      CBZ      r0,0x103488 ; xQueueGenericReset + 160
        0x00103480:    e7ff        ..      B        0x103482 ; xQueueGenericReset + 154
        0x00103482:    f7fffccf    ....    BL       vPortYield ; 0x102e24
        0x00103486:    e000        ..      B        0x10348a ; xQueueGenericReset + 162
        0x00103488:    e7ff        ..      B        0x10348a ; xQueueGenericReset + 162
        0x0010348a:    e000        ..      B        0x10348e ; xQueueGenericReset + 166
        0x0010348c:    e7ff        ..      B        0x10348e ; xQueueGenericReset + 166
        0x0010348e:    e008        ..      B        0x1034a2 ; xQueueGenericReset + 186
        0x00103490:    9800        ..      LDR      r0,[sp,#0]
        0x00103492:    3010        .0      ADDS     r0,r0,#0x10
        0x00103494:    f7fffb4a    ..J.    BL       vListInitialise ; 0x102b2c
        0x00103498:    9800        ..      LDR      r0,[sp,#0]
        0x0010349a:    3024        $0      ADDS     r0,r0,#0x24
        0x0010349c:    f7fffb46    ..F.    BL       vListInitialise ; 0x102b2c
        0x001034a0:    e7ff        ..      B        0x1034a2 ; xQueueGenericReset + 186
        0x001034a2:    f7fffbcb    ....    BL       vPortExitCritical ; 0x102c3c
        0x001034a6:    e002        ..      B        0x1034ae ; xQueueGenericReset + 198
        0x001034a8:    2000        .       MOVS     r0,#0
        0x001034aa:    9001        ..      STR      r0,[sp,#4]
        0x001034ac:    e7ff        ..      B        0x1034ae ; xQueueGenericReset + 198
        0x001034ae:    9801        ..      LDR      r0,[sp,#4]
        0x001034b0:    b920         .      CBNZ     r0,0x1034bc ; xQueueGenericReset + 212
        0x001034b2:    e7ff        ..      B        0x1034b4 ; xQueueGenericReset + 204
        0x001034b4:    f7fffa66    ..f.    BL       ulSetInterruptMask ; 0x102984
        0x001034b8:    e7ff        ..      B        0x1034ba ; xQueueGenericReset + 210
        0x001034ba:    e7fe        ..      B        0x1034ba ; xQueueGenericReset + 210
        0x001034bc:    b004        ..      ADD      sp,sp,#0x10
        0x001034be:    bd80        ..      POP      {r7,pc}
    xQueueReceive
        0x001034c0:    b580        ..      PUSH     {r7,lr}
        0x001034c2:    b08a        ..      SUB      sp,sp,#0x28
        0x001034c4:    9008        ..      STR      r0,[sp,#0x20]
        0x001034c6:    9107        ..      STR      r1,[sp,#0x1c]
        0x001034c8:    2000        .       MOVS     r0,#0
        0x001034ca:    9006        ..      STR      r0,[sp,#0x18]
        0x001034cc:    9005        ..      STR      r0,[sp,#0x14]
        0x001034ce:    9808        ..      LDR      r0,[sp,#0x20]
        0x001034d0:    9002        ..      STR      r0,[sp,#8]
        0x001034d2:    9802        ..      LDR      r0,[sp,#8]
        0x001034d4:    b920         .      CBNZ     r0,0x1034e0 ; xQueueReceive + 32
        0x001034d6:    e7ff        ..      B        0x1034d8 ; xQueueReceive + 24
        0x001034d8:    f7fffa54    ..T.    BL       ulSetInterruptMask ; 0x102984
        0x001034dc:    e7ff        ..      B        0x1034de ; xQueueReceive + 30
        0x001034de:    e7fe        ..      B        0x1034de ; xQueueReceive + 30
        0x001034e0:    9907        ..      LDR      r1,[sp,#0x1c]
        0x001034e2:    2000        .       MOVS     r0,#0
        0x001034e4:    b931        1.      CBNZ     r1,0x1034f4 ; xQueueReceive + 52
        0x001034e6:    e7ff        ..      B        0x1034e8 ; xQueueReceive + 40
        0x001034e8:    9802        ..      LDR      r0,[sp,#8]
        0x001034ea:    6c00        .l      LDR      r0,[r0,#0x40]
        0x001034ec:    2800        .(      CMP      r0,#0
        0x001034ee:    bf18        ..      IT       NE
        0x001034f0:    2001        .       MOVNE    r0,#1
        0x001034f2:    e7ff        ..      B        0x1034f4 ; xQueueReceive + 52
        0x001034f4:    07c0        ..      LSLS     r0,r0,#31
        0x001034f6:    b120         .      CBZ      r0,0x103502 ; xQueueReceive + 66
        0x001034f8:    e7ff        ..      B        0x1034fa ; xQueueReceive + 58
        0x001034fa:    f7fffa43    ..C.    BL       ulSetInterruptMask ; 0x102984
        0x001034fe:    e7ff        ..      B        0x103500 ; xQueueReceive + 64
        0x00103500:    e7fe        ..      B        0x103500 ; xQueueReceive + 64
        0x00103502:    f000f9bf    ....    BL       xTaskGetSchedulerState ; 0x103884
        0x00103506:    2100        .!      MOVS     r1,#0
        0x00103508:    b928        (.      CBNZ     r0,0x103516 ; xQueueReceive + 86
        0x0010350a:    e7ff        ..      B        0x10350c ; xQueueReceive + 76
        0x0010350c:    9906        ..      LDR      r1,[sp,#0x18]
        0x0010350e:    2900        .)      CMP      r1,#0
        0x00103510:    bf18        ..      IT       NE
        0x00103512:    2101        .!      MOVNE    r1,#1
        0x00103514:    e7ff        ..      B        0x103516 ; xQueueReceive + 86
        0x00103516:    07c8        ..      LSLS     r0,r1,#31
        0x00103518:    b120         .      CBZ      r0,0x103524 ; xQueueReceive + 100
        0x0010351a:    e7ff        ..      B        0x10351c ; xQueueReceive + 92
        0x0010351c:    f7fffa32    ..2.    BL       ulSetInterruptMask ; 0x102984
        0x00103520:    e7ff        ..      B        0x103522 ; xQueueReceive + 98
        0x00103522:    e7fe        ..      B        0x103522 ; xQueueReceive + 98
        0x00103524:    e7ff        ..      B        0x103526 ; xQueueReceive + 102
        0x00103526:    f7fffb79    ..y.    BL       vPortEnterCritical ; 0x102c1c
        0x0010352a:    9802        ..      LDR      r0,[sp,#8]
        0x0010352c:    6b80        .k      LDR      r0,[r0,#0x38]
        0x0010352e:    9001        ..      STR      r0,[sp,#4]
        0x00103530:    9801        ..      LDR      r0,[sp,#4]
        0x00103532:    b1e8        ..      CBZ      r0,0x103570 ; xQueueReceive + 176
        0x00103534:    e7ff        ..      B        0x103536 ; xQueueReceive + 118
        0x00103536:    9802        ..      LDR      r0,[sp,#8]
        0x00103538:    9907        ..      LDR      r1,[sp,#0x1c]
        0x0010353a:    f7fefb71    ..q.    BL       prvCopyDataFromQueue ; 0x101c20
        0x0010353e:    9801        ..      LDR      r0,[sp,#4]
        0x00103540:    3801        .8      SUBS     r0,#1
        0x00103542:    9902        ..      LDR      r1,[sp,#8]
        0x00103544:    6388        .c      STR      r0,[r1,#0x38]
        0x00103546:    9802        ..      LDR      r0,[sp,#8]
        0x00103548:    6900        .i      LDR      r0,[r0,#0x10]
        0x0010354a:    b158        X.      CBZ      r0,0x103564 ; xQueueReceive + 164
        0x0010354c:    e7ff        ..      B        0x10354e ; xQueueReceive + 142
        0x0010354e:    9802        ..      LDR      r0,[sp,#8]
        0x00103550:    3010        .0      ADDS     r0,r0,#0x10
        0x00103552:    f000faed    ....    BL       xTaskRemoveFromEventList ; 0x103b30
        0x00103556:    b118        ..      CBZ      r0,0x103560 ; xQueueReceive + 160
        0x00103558:    e7ff        ..      B        0x10355a ; xQueueReceive + 154
        0x0010355a:    f7fffc63    ..c.    BL       vPortYield ; 0x102e24
        0x0010355e:    e000        ..      B        0x103562 ; xQueueReceive + 162
        0x00103560:    e7ff        ..      B        0x103562 ; xQueueReceive + 162
        0x00103562:    e000        ..      B        0x103566 ; xQueueReceive + 166
        0x00103564:    e7ff        ..      B        0x103566 ; xQueueReceive + 166
        0x00103566:    f7fffb69    ..i.    BL       vPortExitCritical ; 0x102c3c
        0x0010356a:    2001        .       MOVS     r0,#1
        0x0010356c:    9009        ..      STR      r0,[sp,#0x24]
        0x0010356e:    e064        d.      B        0x10363a ; xQueueReceive + 378
        0x00103570:    9806        ..      LDR      r0,[sp,#0x18]
        0x00103572:    b928        (.      CBNZ     r0,0x103580 ; xQueueReceive + 192
        0x00103574:    e7ff        ..      B        0x103576 ; xQueueReceive + 182
        0x00103576:    f7fffb61    ..a.    BL       vPortExitCritical ; 0x102c3c
        0x0010357a:    2000        .       MOVS     r0,#0
        0x0010357c:    9009        ..      STR      r0,[sp,#0x24]
        0x0010357e:    e05c        \.      B        0x10363a ; xQueueReceive + 378
        0x00103580:    9805        ..      LDR      r0,[sp,#0x14]
        0x00103582:    b930        0.      CBNZ     r0,0x103592 ; xQueueReceive + 210
        0x00103584:    e7ff        ..      B        0x103586 ; xQueueReceive + 198
        0x00103586:    a803        ..      ADD      r0,sp,#0xc
        0x00103588:    f7fffd5e    ..^.    BL       vTaskInternalSetTimeOutState ; 0x103048
        0x0010358c:    2001        .       MOVS     r0,#1
        0x0010358e:    9005        ..      STR      r0,[sp,#0x14]
        0x00103590:    e000        ..      B        0x103594 ; xQueueReceive + 212
        0x00103592:    e7ff        ..      B        0x103594 ; xQueueReceive + 212
        0x00103594:    e7ff        ..      B        0x103596 ; xQueueReceive + 214
        0x00103596:    e7ff        ..      B        0x103598 ; xQueueReceive + 216
        0x00103598:    f7fffb50    ..P.    BL       vPortExitCritical ; 0x102c3c
        0x0010359c:    f7fffe20    .. .    BL       vTaskSuspendAll ; 0x1031e0
        0x001035a0:    f7fffb3c    ..<.    BL       vPortEnterCritical ; 0x102c1c
        0x001035a4:    9802        ..      LDR      r0,[sp,#8]
        0x001035a6:    f9900044    ..D.    LDRSB    r0,[r0,#0x44]
        0x001035aa:    3001        .0      ADDS     r0,#1
        0x001035ac:    b928        (.      CBNZ     r0,0x1035ba ; xQueueReceive + 250
        0x001035ae:    e7ff        ..      B        0x1035b0 ; xQueueReceive + 240
        0x001035b0:    9802        ..      LDR      r0,[sp,#8]
        0x001035b2:    2100        .!      MOVS     r1,#0
        0x001035b4:    f8801044    ..D.    STRB     r1,[r0,#0x44]
        0x001035b8:    e7ff        ..      B        0x1035ba ; xQueueReceive + 250
        0x001035ba:    9802        ..      LDR      r0,[sp,#8]
        0x001035bc:    f9900045    ..E.    LDRSB    r0,[r0,#0x45]
        0x001035c0:    3001        .0      ADDS     r0,#1
        0x001035c2:    b928        (.      CBNZ     r0,0x1035d0 ; xQueueReceive + 272
        0x001035c4:    e7ff        ..      B        0x1035c6 ; xQueueReceive + 262
        0x001035c6:    9802        ..      LDR      r0,[sp,#8]
        0x001035c8:    2100        .!      MOVS     r1,#0
        0x001035ca:    f8801045    ..E.    STRB     r1,[r0,#0x45]
        0x001035ce:    e7ff        ..      B        0x1035d0 ; xQueueReceive + 272
        0x001035d0:    f7fffb34    ..4.    BL       vPortExitCritical ; 0x102c3c
        0x001035d4:    a803        ..      ADD      r0,sp,#0xc
        0x001035d6:    a906        ..      ADD      r1,sp,#0x18
        0x001035d8:    f000f832    ..2.    BL       xTaskCheckForTimeOut ; 0x103640
        0x001035dc:    b9e8        ..      CBNZ     r0,0x10361a ; xQueueReceive + 346
        0x001035de:    e7ff        ..      B        0x1035e0 ; xQueueReceive + 288
        0x001035e0:    9802        ..      LDR      r0,[sp,#8]
        0x001035e2:    f7fefdab    ....    BL       prvIsQueueEmpty ; 0x10213c
        0x001035e6:    b188        ..      CBZ      r0,0x10360c ; xQueueReceive + 332
        0x001035e8:    e7ff        ..      B        0x1035ea ; xQueueReceive + 298
        0x001035ea:    9802        ..      LDR      r0,[sp,#8]
        0x001035ec:    3024        $0      ADDS     r0,r0,#0x24
        0x001035ee:    9906        ..      LDR      r1,[sp,#0x18]
        0x001035f0:    f7fffd44    ..D.    BL       vTaskPlaceOnEventList ; 0x10307c
        0x001035f4:    9802        ..      LDR      r0,[sp,#8]
        0x001035f6:    f7feff91    ....    BL       prvUnlockQueue ; 0x10251c
        0x001035fa:    f000fb5f    .._.    BL       xTaskResumeAll ; 0x103cbc
        0x001035fe:    b918        ..      CBNZ     r0,0x103608 ; xQueueReceive + 328
        0x00103600:    e7ff        ..      B        0x103602 ; xQueueReceive + 322
        0x00103602:    f7fffc0f    ....    BL       vPortYield ; 0x102e24
        0x00103606:    e000        ..      B        0x10360a ; xQueueReceive + 330
        0x00103608:    e7ff        ..      B        0x10360a ; xQueueReceive + 330
        0x0010360a:    e005        ..      B        0x103618 ; xQueueReceive + 344
        0x0010360c:    9802        ..      LDR      r0,[sp,#8]
        0x0010360e:    f7feff85    ....    BL       prvUnlockQueue ; 0x10251c
        0x00103612:    f000fb53    ..S.    BL       xTaskResumeAll ; 0x103cbc
        0x00103616:    e7ff        ..      B        0x103618 ; xQueueReceive + 344
        0x00103618:    e00e        ..      B        0x103638 ; xQueueReceive + 376
        0x0010361a:    9802        ..      LDR      r0,[sp,#8]
        0x0010361c:    f7feff7e    ..~.    BL       prvUnlockQueue ; 0x10251c
        0x00103620:    f000fb4c    ..L.    BL       xTaskResumeAll ; 0x103cbc
        0x00103624:    9802        ..      LDR      r0,[sp,#8]
        0x00103626:    f7fefd89    ....    BL       prvIsQueueEmpty ; 0x10213c
        0x0010362a:    b118        ..      CBZ      r0,0x103634 ; xQueueReceive + 372
        0x0010362c:    e7ff        ..      B        0x10362e ; xQueueReceive + 366
        0x0010362e:    2000        .       MOVS     r0,#0
        0x00103630:    9009        ..      STR      r0,[sp,#0x24]
        0x00103632:    e002        ..      B        0x10363a ; xQueueReceive + 378
        0x00103634:    e7ff        ..      B        0x103636 ; xQueueReceive + 374
        0x00103636:    e7ff        ..      B        0x103638 ; xQueueReceive + 376
        0x00103638:    e775        u.      B        0x103526 ; xQueueReceive + 102
        0x0010363a:    9809        ..      LDR      r0,[sp,#0x24]
        0x0010363c:    b00a        ..      ADD      sp,sp,#0x28
        0x0010363e:    bd80        ..      POP      {r7,pc}
    xTaskCheckForTimeOut
        0x00103640:    b580        ..      PUSH     {r7,lr}
        0x00103642:    b086        ..      SUB      sp,sp,#0x18
        0x00103644:    9005        ..      STR      r0,[sp,#0x14]
        0x00103646:    9104        ..      STR      r1,[sp,#0x10]
        0x00103648:    9805        ..      LDR      r0,[sp,#0x14]
        0x0010364a:    b920         .      CBNZ     r0,0x103656 ; xTaskCheckForTimeOut + 22
        0x0010364c:    e7ff        ..      B        0x10364e ; xTaskCheckForTimeOut + 14
        0x0010364e:    f7fff999    ....    BL       ulSetInterruptMask ; 0x102984
        0x00103652:    e7ff        ..      B        0x103654 ; xTaskCheckForTimeOut + 20
        0x00103654:    e7fe        ..      B        0x103654 ; xTaskCheckForTimeOut + 20
        0x00103656:    9804        ..      LDR      r0,[sp,#0x10]
        0x00103658:    b920         .      CBNZ     r0,0x103664 ; xTaskCheckForTimeOut + 36
        0x0010365a:    e7ff        ..      B        0x10365c ; xTaskCheckForTimeOut + 28
        0x0010365c:    f7fff992    ....    BL       ulSetInterruptMask ; 0x102984
        0x00103660:    e7ff        ..      B        0x103662 ; xTaskCheckForTimeOut + 34
        0x00103662:    e7fe        ..      B        0x103662 ; xTaskCheckForTimeOut + 34
        0x00103664:    f7fffada    ....    BL       vPortEnterCritical ; 0x102c1c
        0x00103668:    f2402058    @.X     MOVW     r0,#0x258
        0x0010366c:    f2c20010    ....    MOVT     r0,#0x2010
        0x00103670:    6800        .h      LDR      r0,[r0,#0]
        0x00103672:    9002        ..      STR      r0,[sp,#8]
        0x00103674:    9802        ..      LDR      r0,[sp,#8]
        0x00103676:    9905        ..      LDR      r1,[sp,#0x14]
        0x00103678:    6849        Ih      LDR      r1,[r1,#4]
        0x0010367a:    1a40        @.      SUBS     r0,r0,r1
        0x0010367c:    9001        ..      STR      r0,[sp,#4]
        0x0010367e:    9804        ..      LDR      r0,[sp,#0x10]
        0x00103680:    6800        .h      LDR      r0,[r0,#0]
        0x00103682:    3001        .0      ADDS     r0,#1
        0x00103684:    b918        ..      CBNZ     r0,0x10368e ; xTaskCheckForTimeOut + 78
        0x00103686:    e7ff        ..      B        0x103688 ; xTaskCheckForTimeOut + 72
        0x00103688:    2000        .       MOVS     r0,#0
        0x0010368a:    9003        ..      STR      r0,[sp,#0xc]
        0x0010368c:    e02e        ..      B        0x1036ec ; xTaskCheckForTimeOut + 172
        0x0010368e:    f2402060    @.`     MOVW     r0,#0x260
        0x00103692:    f2c20010    ....    MOVT     r0,#0x2010
        0x00103696:    6800        .h      LDR      r0,[r0,#0]
        0x00103698:    9905        ..      LDR      r1,[sp,#0x14]
        0x0010369a:    6809        .h      LDR      r1,[r1,#0]
        0x0010369c:    4288        .B      CMP      r0,r1
        0x0010369e:    d00c        ..      BEQ      0x1036ba ; xTaskCheckForTimeOut + 122
        0x001036a0:    e7ff        ..      B        0x1036a2 ; xTaskCheckForTimeOut + 98
        0x001036a2:    9802        ..      LDR      r0,[sp,#8]
        0x001036a4:    9905        ..      LDR      r1,[sp,#0x14]
        0x001036a6:    6849        Ih      LDR      r1,[r1,#4]
        0x001036a8:    4288        .B      CMP      r0,r1
        0x001036aa:    d306        ..      BCC      0x1036ba ; xTaskCheckForTimeOut + 122
        0x001036ac:    e7ff        ..      B        0x1036ae ; xTaskCheckForTimeOut + 110
        0x001036ae:    2001        .       MOVS     r0,#1
        0x001036b0:    9003        ..      STR      r0,[sp,#0xc]
        0x001036b2:    9804        ..      LDR      r0,[sp,#0x10]
        0x001036b4:    2100        .!      MOVS     r1,#0
        0x001036b6:    6001        .`      STR      r1,[r0,#0]
        0x001036b8:    e017        ..      B        0x1036ea ; xTaskCheckForTimeOut + 170
        0x001036ba:    9801        ..      LDR      r0,[sp,#4]
        0x001036bc:    9904        ..      LDR      r1,[sp,#0x10]
        0x001036be:    6809        .h      LDR      r1,[r1,#0]
        0x001036c0:    4288        .B      CMP      r0,r1
        0x001036c2:    d20b        ..      BCS      0x1036dc ; xTaskCheckForTimeOut + 156
        0x001036c4:    e7ff        ..      B        0x1036c6 ; xTaskCheckForTimeOut + 134
        0x001036c6:    9801        ..      LDR      r0,[sp,#4]
        0x001036c8:    9904        ..      LDR      r1,[sp,#0x10]
        0x001036ca:    680a        .h      LDR      r2,[r1,#0]
        0x001036cc:    1a10        ..      SUBS     r0,r2,r0
        0x001036ce:    6008        .`      STR      r0,[r1,#0]
        0x001036d0:    9805        ..      LDR      r0,[sp,#0x14]
        0x001036d2:    f7fffcb9    ....    BL       vTaskInternalSetTimeOutState ; 0x103048
        0x001036d6:    2000        .       MOVS     r0,#0
        0x001036d8:    9003        ..      STR      r0,[sp,#0xc]
        0x001036da:    e005        ..      B        0x1036e8 ; xTaskCheckForTimeOut + 168
        0x001036dc:    9804        ..      LDR      r0,[sp,#0x10]
        0x001036de:    2100        .!      MOVS     r1,#0
        0x001036e0:    6001        .`      STR      r1,[r0,#0]
        0x001036e2:    2001        .       MOVS     r0,#1
        0x001036e4:    9003        ..      STR      r0,[sp,#0xc]
        0x001036e6:    e7ff        ..      B        0x1036e8 ; xTaskCheckForTimeOut + 168
        0x001036e8:    e7ff        ..      B        0x1036ea ; xTaskCheckForTimeOut + 170
        0x001036ea:    e7ff        ..      B        0x1036ec ; xTaskCheckForTimeOut + 172
        0x001036ec:    f7fffaa6    ....    BL       vPortExitCritical ; 0x102c3c
        0x001036f0:    9803        ..      LDR      r0,[sp,#0xc]
        0x001036f2:    b006        ..      ADD      sp,sp,#0x18
        0x001036f4:    bd80        ..      POP      {r7,pc}
        0x001036f6:    0000        ..      MOVS     r0,r0
    xTaskCreate
        0x001036f8:    b510        ..      PUSH     {r4,lr}
        0x001036fa:    b08c        ..      SUB      sp,sp,#0x30
        0x001036fc:    900b        ..      STR      r0,[sp,#0x2c]
        0x001036fe:    910a        ..      STR      r1,[sp,#0x28]
        0x00103700:    f44f6080    O..`    MOV      r0,#0x400
        0x00103704:    f8ad0026    ..&.    STRH     r0,[sp,#0x26]
        0x00103708:    2000        .       MOVS     r0,#0
        0x0010370a:    9008        ..      STR      r0,[sp,#0x20]
        0x0010370c:    9207        ..      STR      r2,[sp,#0x1c]
        0x0010370e:    9306        ..      STR      r3,[sp,#0x18]
        0x00103710:    f8bd0026    ..&.    LDRH     r0,[sp,#0x26]
        0x00103714:    0080        ..      LSLS     r0,r0,#2
        0x00103716:    f7feff5b    ..[.    BL       pvPortMalloc ; 0x1025d0
        0x0010371a:    9003        ..      STR      r0,[sp,#0xc]
        0x0010371c:    9803        ..      LDR      r0,[sp,#0xc]
        0x0010371e:    b328        (.      CBZ      r0,0x10376c ; xTaskCreate + 116
        0x00103720:    e7ff        ..      B        0x103722 ; xTaskCreate + 42
        0x00103722:    2058        X       MOVS     r0,#0x58
        0x00103724:    f7feff54    ..T.    BL       pvPortMalloc ; 0x1025d0
        0x00103728:    9005        ..      STR      r0,[sp,#0x14]
        0x0010372a:    9805        ..      LDR      r0,[sp,#0x14]
        0x0010372c:    b1c8        ..      CBZ      r0,0x103762 ; xTaskCreate + 106
        0x0010372e:    e7ff        ..      B        0x103730 ; xTaskCreate + 56
        0x00103730:    9803        ..      LDR      r0,[sp,#0xc]
        0x00103732:    9905        ..      LDR      r1,[sp,#0x14]
        0x00103734:    6308        .c      STR      r0,[r1,#0x30]
        0x00103736:    990a        ..      LDR      r1,[sp,#0x28]
        0x00103738:    9a05        ..      LDR      r2,[sp,#0x14]
        0x0010373a:    9b03        ..      LDR      r3,[sp,#0xc]
        0x0010373c:    f8bd0026    ..&.    LDRH     r0,[sp,#0x26]
        0x00103740:    ea4f0c80    O...    LSL      r12,r0,#2
        0x00103744:    eb030e80    ....    ADD      lr,r3,r0,LSL #2
        0x00103748:    9807        ..      LDR      r0,[sp,#0x1c]
        0x0010374a:    9002        ..      STR      r0,[sp,#8]
        0x0010374c:    f8cdc004    ....    STR      r12,[sp,#4]
        0x00103750:    f8cde000    ....    STR      lr,[sp,#0]
        0x00103754:    f6441070    D.p.    MOV      r0,#0x4970
        0x00103758:    f2c00010    ....    MOVT     r0,#0x10
        0x0010375c:    f7fdfffa    ....    BL       bk_no_secure_printf ; 0x101754
        0x00103760:    e003        ..      B        0x10376a ; xTaskCreate + 114
        0x00103762:    9803        ..      LDR      r0,[sp,#0xc]
        0x00103764:    f7fffa86    ....    BL       vPortFree ; 0x102c74
        0x00103768:    e7ff        ..      B        0x10376a ; xTaskCreate + 114
        0x0010376a:    e002        ..      B        0x103772 ; xTaskCreate + 122
        0x0010376c:    2000        .       MOVS     r0,#0
        0x0010376e:    9005        ..      STR      r0,[sp,#0x14]
        0x00103770:    e7ff        ..      B        0x103772 ; xTaskCreate + 122
        0x00103772:    9805        ..      LDR      r0,[sp,#0x14]
        0x00103774:    b1d8        ..      CBZ      r0,0x1037ae ; xTaskCreate + 182
        0x00103776:    e7ff        ..      B        0x103778 ; xTaskCreate + 128
        0x00103778:    9805        ..      LDR      r0,[sp,#0x14]
        0x0010377a:    2100        .!      MOVS     r1,#0
        0x0010377c:    f8801055    ..U.    STRB     r1,[r0,#0x55]
        0x00103780:    980b        ..      LDR      r0,[sp,#0x2c]
        0x00103782:    990a        ..      LDR      r1,[sp,#0x28]
        0x00103784:    f8bd2026    ..&     LDRH     r2,[sp,#0x26]
        0x00103788:    9b08        ..      LDR      r3,[sp,#0x20]
        0x0010378a:    f8ddc01c    ....    LDR      r12,[sp,#0x1c]
        0x0010378e:    f8dde018    ....    LDR      lr,[sp,#0x18]
        0x00103792:    9c05        ..      LDR      r4,[sp,#0x14]
        0x00103794:    9402        ..      STR      r4,[sp,#8]
        0x00103796:    f8cde004    ....    STR      lr,[sp,#4]
        0x0010379a:    f8cdc000    ....    STR      r12,[sp,#0]
        0x0010379e:    f7fefb4b    ..K.    BL       prvInitialiseNewTask ; 0x101e38
        0x001037a2:    9805        ..      LDR      r0,[sp,#0x14]
        0x001037a4:    f7fef938    ..8.    BL       prvAddNewTaskToReadyList ; 0x101a18
        0x001037a8:    2001        .       MOVS     r0,#1
        0x001037aa:    9004        ..      STR      r0,[sp,#0x10]
        0x001037ac:    e003        ..      B        0x1037b6 ; xTaskCreate + 190
        0x001037ae:    f04f30ff    O..0    MOV      r0,#0xffffffff
        0x001037b2:    9004        ..      STR      r0,[sp,#0x10]
        0x001037b4:    e7ff        ..      B        0x1037b6 ; xTaskCreate + 190
        0x001037b6:    9804        ..      LDR      r0,[sp,#0x10]
        0x001037b8:    b00c        ..      ADD      sp,sp,#0x30
        0x001037ba:    bd10        ..      POP      {r4,pc}
    xTaskCreateStatic
        0x001037bc:    b580        ..      PUSH     {r7,lr}
        0x001037be:    b08c        ..      SUB      sp,sp,#0x30
        0x001037c0:    f8ddc03c    ..<.    LDR      r12,[sp,#0x3c]
        0x001037c4:    f8ddc038    ..8.    LDR      r12,[sp,#0x38]
        0x001037c8:    900b        ..      STR      r0,[sp,#0x2c]
        0x001037ca:    910a        ..      STR      r1,[sp,#0x28]
        0x001037cc:    9209        ..      STR      r2,[sp,#0x24]
        0x001037ce:    2000        .       MOVS     r0,#0
        0x001037d0:    9008        ..      STR      r0,[sp,#0x20]
        0x001037d2:    9307        ..      STR      r3,[sp,#0x1c]
        0x001037d4:    980e        ..      LDR      r0,[sp,#0x38]
        0x001037d6:    b920         .      CBNZ     r0,0x1037e2 ; xTaskCreateStatic + 38
        0x001037d8:    e7ff        ..      B        0x1037da ; xTaskCreateStatic + 30
        0x001037da:    f7fff8d3    ....    BL       ulSetInterruptMask ; 0x102984
        0x001037de:    e7ff        ..      B        0x1037e0 ; xTaskCreateStatic + 36
        0x001037e0:    e7fe        ..      B        0x1037e0 ; xTaskCreateStatic + 36
        0x001037e2:    980f        ..      LDR      r0,[sp,#0x3c]
        0x001037e4:    b920         .      CBNZ     r0,0x1037f0 ; xTaskCreateStatic + 52
        0x001037e6:    e7ff        ..      B        0x1037e8 ; xTaskCreateStatic + 44
        0x001037e8:    f7fff8cc    ....    BL       ulSetInterruptMask ; 0x102984
        0x001037ec:    e7ff        ..      B        0x1037ee ; xTaskCreateStatic + 50
        0x001037ee:    e7fe        ..      B        0x1037ee ; xTaskCreateStatic + 50
        0x001037f0:    2058        X       MOVS     r0,#0x58
        0x001037f2:    9004        ..      STR      r0,[sp,#0x10]
        0x001037f4:    9804        ..      LDR      r0,[sp,#0x10]
        0x001037f6:    2858        X(      CMP      r0,#0x58
        0x001037f8:    d004        ..      BEQ      0x103804 ; xTaskCreateStatic + 72
        0x001037fa:    e7ff        ..      B        0x1037fc ; xTaskCreateStatic + 64
        0x001037fc:    f7fff8c2    ....    BL       ulSetInterruptMask ; 0x102984
        0x00103800:    e7ff        ..      B        0x103802 ; xTaskCreateStatic + 70
        0x00103802:    e7fe        ..      B        0x103802 ; xTaskCreateStatic + 70
        0x00103804:    9804        ..      LDR      r0,[sp,#0x10]
        0x00103806:    980f        ..      LDR      r0,[sp,#0x3c]
        0x00103808:    b3b0        ..      CBZ      r0,0x103878 ; xTaskCreateStatic + 188
        0x0010380a:    e7ff        ..      B        0x10380c ; xTaskCreateStatic + 80
        0x0010380c:    980e        ..      LDR      r0,[sp,#0x38]
        0x0010380e:    b398        ..      CBZ      r0,0x103878 ; xTaskCreateStatic + 188
        0x00103810:    e7ff        ..      B        0x103812 ; xTaskCreateStatic + 86
        0x00103812:    980f        ..      LDR      r0,[sp,#0x3c]
        0x00103814:    9006        ..      STR      r0,[sp,#0x18]
        0x00103816:    980e        ..      LDR      r0,[sp,#0x38]
        0x00103818:    9906        ..      LDR      r1,[sp,#0x18]
        0x0010381a:    6308        .c      STR      r0,[r1,#0x30]
        0x0010381c:    9806        ..      LDR      r0,[sp,#0x18]
        0x0010381e:    2102        .!      MOVS     r1,#2
        0x00103820:    f8801055    ..U.    STRB     r1,[r0,#0x55]
        0x00103824:    990a        ..      LDR      r1,[sp,#0x28]
        0x00103826:    9a06        ..      LDR      r2,[sp,#0x18]
        0x00103828:    9b0e        ..      LDR      r3,[sp,#0x38]
        0x0010382a:    9809        ..      LDR      r0,[sp,#0x24]
        0x0010382c:    ea4f0c80    O...    LSL      r12,r0,#2
        0x00103830:    eb030e80    ....    ADD      lr,r3,r0,LSL #2
        0x00103834:    9807        ..      LDR      r0,[sp,#0x1c]
        0x00103836:    9002        ..      STR      r0,[sp,#8]
        0x00103838:    f8cdc004    ....    STR      r12,[sp,#4]
        0x0010383c:    f8cde000    ....    STR      lr,[sp,#0]
        0x00103840:    f644104a    D.J.    MOV      r0,#0x494a
        0x00103844:    f2c00010    ....    MOVT     r0,#0x10
        0x00103848:    f7fdff84    ....    BL       bk_no_secure_printf ; 0x101754
        0x0010384c:    980b        ..      LDR      r0,[sp,#0x2c]
        0x0010384e:    990a        ..      LDR      r1,[sp,#0x28]
        0x00103850:    9a09        ..      LDR      r2,[sp,#0x24]
        0x00103852:    9b08        ..      LDR      r3,[sp,#0x20]
        0x00103854:    f8ddc01c    ....    LDR      r12,[sp,#0x1c]
        0x00103858:    f8dde018    ....    LDR      lr,[sp,#0x18]
        0x0010385c:    f8cde008    ....    STR      lr,[sp,#8]
        0x00103860:    f10d0e14    ....    ADD      lr,sp,#0x14
        0x00103864:    f8cde004    ....    STR      lr,[sp,#4]
        0x00103868:    f8cdc000    ....    STR      r12,[sp,#0]
        0x0010386c:    f7fefae4    ....    BL       prvInitialiseNewTask ; 0x101e38
        0x00103870:    9806        ..      LDR      r0,[sp,#0x18]
        0x00103872:    f7fef8d1    ....    BL       prvAddNewTaskToReadyList ; 0x101a18
        0x00103876:    e002        ..      B        0x10387e ; xTaskCreateStatic + 194
        0x00103878:    2000        .       MOVS     r0,#0
        0x0010387a:    9005        ..      STR      r0,[sp,#0x14]
        0x0010387c:    e7ff        ..      B        0x10387e ; xTaskCreateStatic + 194
        0x0010387e:    9805        ..      LDR      r0,[sp,#0x14]
        0x00103880:    b00c        ..      ADD      sp,sp,#0x30
        0x00103882:    bd80        ..      POP      {r7,pc}
    xTaskGetSchedulerState
        0x00103884:    b081        ..      SUB      sp,sp,#4
        0x00103886:    f24010dc    @...    MOVW     r0,#0x1dc
        0x0010388a:    f2c20010    ....    MOVT     r0,#0x2010
        0x0010388e:    6800        .h      LDR      r0,[r0,#0]
        0x00103890:    b918        ..      CBNZ     r0,0x10389a ; xTaskGetSchedulerState + 22
        0x00103892:    e7ff        ..      B        0x103894 ; xTaskGetSchedulerState + 16
        0x00103894:    2001        .       MOVS     r0,#1
        0x00103896:    9000        ..      STR      r0,[sp,#0]
        0x00103898:    e00d        ..      B        0x1038b6 ; xTaskGetSchedulerState + 50
        0x0010389a:    f2401004    @...    MOVW     r0,#0x104
        0x0010389e:    f2c20010    ....    MOVT     r0,#0x2010
        0x001038a2:    6800        .h      LDR      r0,[r0,#0]
        0x001038a4:    b918        ..      CBNZ     r0,0x1038ae ; xTaskGetSchedulerState + 42
        0x001038a6:    e7ff        ..      B        0x1038a8 ; xTaskGetSchedulerState + 36
        0x001038a8:    2002        .       MOVS     r0,#2
        0x001038aa:    9000        ..      STR      r0,[sp,#0]
        0x001038ac:    e002        ..      B        0x1038b4 ; xTaskGetSchedulerState + 48
        0x001038ae:    2000        .       MOVS     r0,#0
        0x001038b0:    9000        ..      STR      r0,[sp,#0]
        0x001038b2:    e7ff        ..      B        0x1038b4 ; xTaskGetSchedulerState + 48
        0x001038b4:    e7ff        ..      B        0x1038b6 ; xTaskGetSchedulerState + 50
        0x001038b6:    9800        ..      LDR      r0,[sp,#0]
        0x001038b8:    b001        ..      ADD      sp,sp,#4
        0x001038ba:    4770        pG      BX       lr
    xTaskGetTickCount
        0x001038bc:    b081        ..      SUB      sp,sp,#4
        0x001038be:    f2402058    @.X     MOVW     r0,#0x258
        0x001038c2:    f2c20010    ....    MOVT     r0,#0x2010
        0x001038c6:    6800        .h      LDR      r0,[r0,#0]
        0x001038c8:    9000        ..      STR      r0,[sp,#0]
        0x001038ca:    9800        ..      LDR      r0,[sp,#0]
        0x001038cc:    b001        ..      ADD      sp,sp,#4
        0x001038ce:    4770        pG      BX       lr
    xTaskIncrementTick
        0x001038d0:    b580        ..      PUSH     {r7,lr}
        0x001038d2:    b088        ..      SUB      sp,sp,#0x20
        0x001038d4:    2000        .       MOVS     r0,#0
        0x001038d6:    9005        ..      STR      r0,[sp,#0x14]
        0x001038d8:    f2401004    @...    MOVW     r0,#0x104
        0x001038dc:    f2c20010    ....    MOVT     r0,#0x2010
        0x001038e0:    6800        .h      LDR      r0,[r0,#0]
        0x001038e2:    2800        .(      CMP      r0,#0
        0x001038e4:    f0408118    @...    BNE.W    0x103b18 ; xTaskIncrementTick + 584
        0x001038e8:    e7ff        ..      B        0x1038ea ; xTaskIncrementTick + 26
        0x001038ea:    f2402058    @.X     MOVW     r0,#0x258
        0x001038ee:    f2c20010    ....    MOVT     r0,#0x2010
        0x001038f2:    6801        .h      LDR      r1,[r0,#0]
        0x001038f4:    3101        .1      ADDS     r1,#1
        0x001038f6:    9104        ..      STR      r1,[sp,#0x10]
        0x001038f8:    9904        ..      LDR      r1,[sp,#0x10]
        0x001038fa:    6001        .`      STR      r1,[r0,#0]
        0x001038fc:    9804        ..      LDR      r0,[sp,#0x10]
        0x001038fe:    bb20         .      CBNZ     r0,0x10394a ; xTaskIncrementTick + 122
        0x00103900:    e7ff        ..      B        0x103902 ; xTaskIncrementTick + 50
        0x00103902:    f2402048    @.H     MOVW     r0,#0x248
        0x00103906:    f2c20010    ....    MOVT     r0,#0x2010
        0x0010390a:    6800        .h      LDR      r0,[r0,#0]
        0x0010390c:    6800        .h      LDR      r0,[r0,#0]
        0x0010390e:    b120         .      CBZ      r0,0x10391a ; xTaskIncrementTick + 74
        0x00103910:    e7ff        ..      B        0x103912 ; xTaskIncrementTick + 66
        0x00103912:    f7fff837    ..7.    BL       ulSetInterruptMask ; 0x102984
        0x00103916:    e7ff        ..      B        0x103918 ; xTaskIncrementTick + 72
        0x00103918:    e7fe        ..      B        0x103918 ; xTaskIncrementTick + 72
        0x0010391a:    f2402048    @.H     MOVW     r0,#0x248
        0x0010391e:    f2c20010    ....    MOVT     r0,#0x2010
        0x00103922:    6801        .h      LDR      r1,[r0,#0]
        0x00103924:    9103        ..      STR      r1,[sp,#0xc]
        0x00103926:    f240214c    @.L!    MOVW     r1,#0x24c
        0x0010392a:    f2c20110    ....    MOVT     r1,#0x2010
        0x0010392e:    680a        .h      LDR      r2,[r1,#0]
        0x00103930:    6002        .`      STR      r2,[r0,#0]
        0x00103932:    9803        ..      LDR      r0,[sp,#0xc]
        0x00103934:    6008        .`      STR      r0,[r1,#0]
        0x00103936:    f2402060    @.`     MOVW     r0,#0x260
        0x0010393a:    f2c20010    ....    MOVT     r0,#0x2010
        0x0010393e:    6801        .h      LDR      r1,[r0,#0]
        0x00103940:    3101        .1      ADDS     r1,#1
        0x00103942:    6001        .`      STR      r1,[r0,#0]
        0x00103944:    f7fefd44    ..D.    BL       prvResetNextTaskUnblockTime ; 0x1023d0
        0x00103948:    e000        ..      B        0x10394c ; xTaskIncrementTick + 124
        0x0010394a:    e7ff        ..      B        0x10394c ; xTaskIncrementTick + 124
        0x0010394c:    9804        ..      LDR      r0,[sp,#0x10]
        0x0010394e:    f2402154    @.T!    MOVW     r1,#0x254
        0x00103952:    f2c20110    ....    MOVT     r1,#0x2010
        0x00103956:    6809        .h      LDR      r1,[r1,#0]
        0x00103958:    4288        .B      CMP      r0,r1
        0x0010395a:    f0c080bc    ....    BCC.W    0x103ad6 ; xTaskIncrementTick + 518
        0x0010395e:    e7ff        ..      B        0x103960 ; xTaskIncrementTick + 144
        0x00103960:    e7ff        ..      B        0x103962 ; xTaskIncrementTick + 146
        0x00103962:    f2402048    @.H     MOVW     r0,#0x248
        0x00103966:    f2c20010    ....    MOVT     r0,#0x2010
        0x0010396a:    6800        .h      LDR      r0,[r0,#0]
        0x0010396c:    6800        .h      LDR      r0,[r0,#0]
        0x0010396e:    b940        @.      CBNZ     r0,0x103982 ; xTaskIncrementTick + 178
        0x00103970:    e7ff        ..      B        0x103972 ; xTaskIncrementTick + 162
        0x00103972:    f2402054    @.T     MOVW     r0,#0x254
        0x00103976:    f2c20010    ....    MOVT     r0,#0x2010
        0x0010397a:    f04f31ff    O..1    MOV      r1,#0xffffffff
        0x0010397e:    6001        .`      STR      r1,[r0,#0]
        0x00103980:    e0a8        ..      B        0x103ad4 ; xTaskIncrementTick + 516
        0x00103982:    f2402048    @.H     MOVW     r0,#0x248
        0x00103986:    f2c20010    ....    MOVT     r0,#0x2010
        0x0010398a:    6800        .h      LDR      r0,[r0,#0]
        0x0010398c:    68c0        .h      LDR      r0,[r0,#0xc]
        0x0010398e:    68c0        .h      LDR      r0,[r0,#0xc]
        0x00103990:    9007        ..      STR      r0,[sp,#0x1c]
        0x00103992:    9807        ..      LDR      r0,[sp,#0x1c]
        0x00103994:    6840        @h      LDR      r0,[r0,#4]
        0x00103996:    9006        ..      STR      r0,[sp,#0x18]
        0x00103998:    9804        ..      LDR      r0,[sp,#0x10]
        0x0010399a:    9906        ..      LDR      r1,[sp,#0x18]
        0x0010399c:    4288        .B      CMP      r0,r1
        0x0010399e:    d207        ..      BCS      0x1039b0 ; xTaskIncrementTick + 224
        0x001039a0:    e7ff        ..      B        0x1039a2 ; xTaskIncrementTick + 210
        0x001039a2:    9806        ..      LDR      r0,[sp,#0x18]
        0x001039a4:    f2402154    @.T!    MOVW     r1,#0x254
        0x001039a8:    f2c20110    ....    MOVT     r1,#0x2010
        0x001039ac:    6008        .`      STR      r0,[r1,#0]
        0x001039ae:    e091        ..      B        0x103ad4 ; xTaskIncrementTick + 516
        0x001039b0:    e7ff        ..      B        0x1039b2 ; xTaskIncrementTick + 226
        0x001039b2:    9807        ..      LDR      r0,[sp,#0x1c]
        0x001039b4:    6940        @i      LDR      r0,[r0,#0x14]
        0x001039b6:    9002        ..      STR      r0,[sp,#8]
        0x001039b8:    9807        ..      LDR      r0,[sp,#0x1c]
        0x001039ba:    6881        .h      LDR      r1,[r0,#8]
        0x001039bc:    68c0        .h      LDR      r0,[r0,#0xc]
        0x001039be:    6088        .`      STR      r0,[r1,#8]
        0x001039c0:    9807        ..      LDR      r0,[sp,#0x1c]
        0x001039c2:    6881        .h      LDR      r1,[r0,#8]
        0x001039c4:    68c0        .h      LDR      r0,[r0,#0xc]
        0x001039c6:    6041        A`      STR      r1,[r0,#4]
        0x001039c8:    9802        ..      LDR      r0,[sp,#8]
        0x001039ca:    6840        @h      LDR      r0,[r0,#4]
        0x001039cc:    9907        ..      LDR      r1,[sp,#0x1c]
        0x001039ce:    3104        .1      ADDS     r1,#4
        0x001039d0:    4288        .B      CMP      r0,r1
        0x001039d2:    d105        ..      BNE      0x1039e0 ; xTaskIncrementTick + 272
        0x001039d4:    e7ff        ..      B        0x1039d6 ; xTaskIncrementTick + 262
        0x001039d6:    9807        ..      LDR      r0,[sp,#0x1c]
        0x001039d8:    68c0        .h      LDR      r0,[r0,#0xc]
        0x001039da:    9902        ..      LDR      r1,[sp,#8]
        0x001039dc:    6048        H`      STR      r0,[r1,#4]
        0x001039de:    e7ff        ..      B        0x1039e0 ; xTaskIncrementTick + 272
        0x001039e0:    9807        ..      LDR      r0,[sp,#0x1c]
        0x001039e2:    2100        .!      MOVS     r1,#0
        0x001039e4:    6141        Aa      STR      r1,[r0,#0x14]
        0x001039e6:    9802        ..      LDR      r0,[sp,#8]
        0x001039e8:    6801        .h      LDR      r1,[r0,#0]
        0x001039ea:    3901        .9      SUBS     r1,#1
        0x001039ec:    6001        .`      STR      r1,[r0,#0]
        0x001039ee:    9807        ..      LDR      r0,[sp,#0x1c]
        0x001039f0:    6a80        .j      LDR      r0,[r0,#0x28]
        0x001039f2:    b1f8        ..      CBZ      r0,0x103a34 ; xTaskIncrementTick + 356
        0x001039f4:    e7ff        ..      B        0x1039f6 ; xTaskIncrementTick + 294
        0x001039f6:    9807        ..      LDR      r0,[sp,#0x1c]
        0x001039f8:    6a80        .j      LDR      r0,[r0,#0x28]
        0x001039fa:    9001        ..      STR      r0,[sp,#4]
        0x001039fc:    9807        ..      LDR      r0,[sp,#0x1c]
        0x001039fe:    69c1        .i      LDR      r1,[r0,#0x1c]
        0x00103a00:    6a00        .j      LDR      r0,[r0,#0x20]
        0x00103a02:    6088        .`      STR      r0,[r1,#8]
        0x00103a04:    9807        ..      LDR      r0,[sp,#0x1c]
        0x00103a06:    69c1        .i      LDR      r1,[r0,#0x1c]
        0x00103a08:    6a00        .j      LDR      r0,[r0,#0x20]
        0x00103a0a:    6041        A`      STR      r1,[r0,#4]
        0x00103a0c:    9801        ..      LDR      r0,[sp,#4]
        0x00103a0e:    6840        @h      LDR      r0,[r0,#4]
        0x00103a10:    9907        ..      LDR      r1,[sp,#0x1c]
        0x00103a12:    3118        .1      ADDS     r1,r1,#0x18
        0x00103a14:    4288        .B      CMP      r0,r1
        0x00103a16:    d105        ..      BNE      0x103a24 ; xTaskIncrementTick + 340
        0x00103a18:    e7ff        ..      B        0x103a1a ; xTaskIncrementTick + 330
        0x00103a1a:    9807        ..      LDR      r0,[sp,#0x1c]
        0x00103a1c:    6a00        .j      LDR      r0,[r0,#0x20]
        0x00103a1e:    9901        ..      LDR      r1,[sp,#4]
        0x00103a20:    6048        H`      STR      r0,[r1,#4]
        0x00103a22:    e7ff        ..      B        0x103a24 ; xTaskIncrementTick + 340
        0x00103a24:    9807        ..      LDR      r0,[sp,#0x1c]
        0x00103a26:    2100        .!      MOVS     r1,#0
        0x00103a28:    6281        .b      STR      r1,[r0,#0x28]
        0x00103a2a:    9801        ..      LDR      r0,[sp,#4]
        0x00103a2c:    6801        .h      LDR      r1,[r0,#0]
        0x00103a2e:    3901        .9      SUBS     r1,#1
        0x00103a30:    6001        .`      STR      r1,[r0,#0]
        0x00103a32:    e000        ..      B        0x103a36 ; xTaskIncrementTick + 358
        0x00103a34:    e7ff        ..      B        0x103a36 ; xTaskIncrementTick + 358
        0x00103a36:    9807        ..      LDR      r0,[sp,#0x1c]
        0x00103a38:    6ac0        .j      LDR      r0,[r0,#0x2c]
        0x00103a3a:    f240110c    @...    MOVW     r1,#0x10c
        0x00103a3e:    f2c20110    ....    MOVT     r1,#0x2010
        0x00103a42:    6809        .h      LDR      r1,[r1,#0]
        0x00103a44:    4288        .B      CMP      r0,r1
        0x00103a46:    d908        ..      BLS      0x103a5a ; xTaskIncrementTick + 394
        0x00103a48:    e7ff        ..      B        0x103a4a ; xTaskIncrementTick + 378
        0x00103a4a:    9807        ..      LDR      r0,[sp,#0x1c]
        0x00103a4c:    6ac0        .j      LDR      r0,[r0,#0x2c]
        0x00103a4e:    f240110c    @...    MOVW     r1,#0x10c
        0x00103a52:    f2c20110    ....    MOVT     r1,#0x2010
        0x00103a56:    6008        .`      STR      r0,[r1,#0]
        0x00103a58:    e7ff        ..      B        0x103a5a ; xTaskIncrementTick + 394
        0x00103a5a:    9807        ..      LDR      r0,[sp,#0x1c]
        0x00103a5c:    6ac0        .j      LDR      r0,[r0,#0x2c]
        0x00103a5e:    eb000180    ....    ADD      r1,r0,r0,LSL #2
        0x00103a62:    f2401010    @...    MOVW     r0,#0x110
        0x00103a66:    f2c20010    ....    MOVT     r0,#0x2010
        0x00103a6a:    eb000181    ....    ADD      r1,r0,r1,LSL #2
        0x00103a6e:    6849        Ih      LDR      r1,[r1,#4]
        0x00103a70:    9100        ..      STR      r1,[sp,#0]
        0x00103a72:    9900        ..      LDR      r1,[sp,#0]
        0x00103a74:    9a07        ..      LDR      r2,[sp,#0x1c]
        0x00103a76:    6091        .`      STR      r1,[r2,#8]
        0x00103a78:    9900        ..      LDR      r1,[sp,#0]
        0x00103a7a:    6889        .h      LDR      r1,[r1,#8]
        0x00103a7c:    9a07        ..      LDR      r2,[sp,#0x1c]
        0x00103a7e:    60d1        .`      STR      r1,[r2,#0xc]
        0x00103a80:    9907        ..      LDR      r1,[sp,#0x1c]
        0x00103a82:    3104        .1      ADDS     r1,#4
        0x00103a84:    9a00        ..      LDR      r2,[sp,#0]
        0x00103a86:    6892        .h      LDR      r2,[r2,#8]
        0x00103a88:    6051        Q`      STR      r1,[r2,#4]
        0x00103a8a:    9907        ..      LDR      r1,[sp,#0x1c]
        0x00103a8c:    3104        .1      ADDS     r1,#4
        0x00103a8e:    9a00        ..      LDR      r2,[sp,#0]
        0x00103a90:    6091        .`      STR      r1,[r2,#8]
        0x00103a92:    9907        ..      LDR      r1,[sp,#0x1c]
        0x00103a94:    6aca        .j      LDR      r2,[r1,#0x2c]
        0x00103a96:    eb020282    ....    ADD      r2,r2,r2,LSL #2
        0x00103a9a:    eb000282    ....    ADD      r2,r0,r2,LSL #2
        0x00103a9e:    614a        Ja      STR      r2,[r1,#0x14]
        0x00103aa0:    9907        ..      LDR      r1,[sp,#0x1c]
        0x00103aa2:    6ac9        .j      LDR      r1,[r1,#0x2c]
        0x00103aa4:    eb010181    ....    ADD      r1,r1,r1,LSL #2
        0x00103aa8:    f8502021    P.!     LDR      r2,[r0,r1,LSL #2]
        0x00103aac:    3201        .2      ADDS     r2,#1
        0x00103aae:    f8402021    @.!     STR      r2,[r0,r1,LSL #2]
        0x00103ab2:    9807        ..      LDR      r0,[sp,#0x1c]
        0x00103ab4:    6ac0        .j      LDR      r0,[r0,#0x2c]
        0x00103ab6:    f2401100    @...    MOVW     r1,#0x100
        0x00103aba:    f2c20110    ....    MOVT     r1,#0x2010
        0x00103abe:    6809        .h      LDR      r1,[r1,#0]
        0x00103ac0:    6ac9        .j      LDR      r1,[r1,#0x2c]
        0x00103ac2:    4288        .B      CMP      r0,r1
        0x00103ac4:    d303        ..      BCC      0x103ace ; xTaskIncrementTick + 510
        0x00103ac6:    e7ff        ..      B        0x103ac8 ; xTaskIncrementTick + 504
        0x00103ac8:    2001        .       MOVS     r0,#1
        0x00103aca:    9005        ..      STR      r0,[sp,#0x14]
        0x00103acc:    e000        ..      B        0x103ad0 ; xTaskIncrementTick + 512
        0x00103ace:    e7ff        ..      B        0x103ad0 ; xTaskIncrementTick + 512
        0x00103ad0:    e7ff        ..      B        0x103ad2 ; xTaskIncrementTick + 514
        0x00103ad2:    e746        F.      B        0x103962 ; xTaskIncrementTick + 146
        0x00103ad4:    e7ff        ..      B        0x103ad6 ; xTaskIncrementTick + 518
        0x00103ad6:    f2401000    @...    MOVW     r0,#0x100
        0x00103ada:    f2c20010    ....    MOVT     r0,#0x2010
        0x00103ade:    6800        .h      LDR      r0,[r0,#0]
        0x00103ae0:    6ac0        .j      LDR      r0,[r0,#0x2c]
        0x00103ae2:    eb000080    ....    ADD      r0,r0,r0,LSL #2
        0x00103ae6:    f2401110    @...    MOVW     r1,#0x110
        0x00103aea:    f2c20110    ....    MOVT     r1,#0x2010
        0x00103aee:    f8510020    Q. .    LDR      r0,[r1,r0,LSL #2]
        0x00103af2:    2802        .(      CMP      r0,#2
        0x00103af4:    d303        ..      BCC      0x103afe ; xTaskIncrementTick + 558
        0x00103af6:    e7ff        ..      B        0x103af8 ; xTaskIncrementTick + 552
        0x00103af8:    2001        .       MOVS     r0,#1
        0x00103afa:    9005        ..      STR      r0,[sp,#0x14]
        0x00103afc:    e000        ..      B        0x103b00 ; xTaskIncrementTick + 560
        0x00103afe:    e7ff        ..      B        0x103b00 ; xTaskIncrementTick + 560
        0x00103b00:    f2401008    @...    MOVW     r0,#0x108
        0x00103b04:    f2c20010    ....    MOVT     r0,#0x2010
        0x00103b08:    6800        .h      LDR      r0,[r0,#0]
        0x00103b0a:    b118        ..      CBZ      r0,0x103b14 ; xTaskIncrementTick + 580
        0x00103b0c:    e7ff        ..      B        0x103b0e ; xTaskIncrementTick + 574
        0x00103b0e:    2001        .       MOVS     r0,#1
        0x00103b10:    9005        ..      STR      r0,[sp,#0x14]
        0x00103b12:    e000        ..      B        0x103b16 ; xTaskIncrementTick + 582
        0x00103b14:    e7ff        ..      B        0x103b16 ; xTaskIncrementTick + 582
        0x00103b16:    e007        ..      B        0x103b28 ; xTaskIncrementTick + 600
        0x00103b18:    f240205c    @.\     MOVW     r0,#0x25c
        0x00103b1c:    f2c20010    ....    MOVT     r0,#0x2010
        0x00103b20:    6801        .h      LDR      r1,[r0,#0]
        0x00103b22:    3101        .1      ADDS     r1,#1
        0x00103b24:    6001        .`      STR      r1,[r0,#0]
        0x00103b26:    e7ff        ..      B        0x103b28 ; xTaskIncrementTick + 600
        0x00103b28:    9805        ..      LDR      r0,[sp,#0x14]
        0x00103b2a:    b008        ..      ADD      sp,sp,#0x20
        0x00103b2c:    bd80        ..      POP      {r7,pc}
        0x00103b2e:    0000        ..      MOVS     r0,r0
    xTaskRemoveFromEventList
        0x00103b30:    b580        ..      PUSH     {r7,lr}
        0x00103b32:    b088        ..      SUB      sp,sp,#0x20
        0x00103b34:    9007        ..      STR      r0,[sp,#0x1c]
        0x00103b36:    9807        ..      LDR      r0,[sp,#0x1c]
        0x00103b38:    68c0        .h      LDR      r0,[r0,#0xc]
        0x00103b3a:    68c0        .h      LDR      r0,[r0,#0xc]
        0x00103b3c:    9006        ..      STR      r0,[sp,#0x18]
        0x00103b3e:    9806        ..      LDR      r0,[sp,#0x18]
        0x00103b40:    b920         .      CBNZ     r0,0x103b4c ; xTaskRemoveFromEventList + 28
        0x00103b42:    e7ff        ..      B        0x103b44 ; xTaskRemoveFromEventList + 20
        0x00103b44:    f7feff1e    ....    BL       ulSetInterruptMask ; 0x102984
        0x00103b48:    e7ff        ..      B        0x103b4a ; xTaskRemoveFromEventList + 26
        0x00103b4a:    e7fe        ..      B        0x103b4a ; xTaskRemoveFromEventList + 26
        0x00103b4c:    9806        ..      LDR      r0,[sp,#0x18]
        0x00103b4e:    6a80        .j      LDR      r0,[r0,#0x28]
        0x00103b50:    9004        ..      STR      r0,[sp,#0x10]
        0x00103b52:    9806        ..      LDR      r0,[sp,#0x18]
        0x00103b54:    69c1        .i      LDR      r1,[r0,#0x1c]
        0x00103b56:    6a00        .j      LDR      r0,[r0,#0x20]
        0x00103b58:    6088        .`      STR      r0,[r1,#8]
        0x00103b5a:    9806        ..      LDR      r0,[sp,#0x18]
        0x00103b5c:    69c1        .i      LDR      r1,[r0,#0x1c]
        0x00103b5e:    6a00        .j      LDR      r0,[r0,#0x20]
        0x00103b60:    6041        A`      STR      r1,[r0,#4]
        0x00103b62:    9804        ..      LDR      r0,[sp,#0x10]
        0x00103b64:    6840        @h      LDR      r0,[r0,#4]
        0x00103b66:    9906        ..      LDR      r1,[sp,#0x18]
        0x00103b68:    3118        .1      ADDS     r1,r1,#0x18
        0x00103b6a:    4288        .B      CMP      r0,r1
        0x00103b6c:    d105        ..      BNE      0x103b7a ; xTaskRemoveFromEventList + 74
        0x00103b6e:    e7ff        ..      B        0x103b70 ; xTaskRemoveFromEventList + 64
        0x00103b70:    9806        ..      LDR      r0,[sp,#0x18]
        0x00103b72:    6a00        .j      LDR      r0,[r0,#0x20]
        0x00103b74:    9904        ..      LDR      r1,[sp,#0x10]
        0x00103b76:    6048        H`      STR      r0,[r1,#4]
        0x00103b78:    e7ff        ..      B        0x103b7a ; xTaskRemoveFromEventList + 74
        0x00103b7a:    9806        ..      LDR      r0,[sp,#0x18]
        0x00103b7c:    2100        .!      MOVS     r1,#0
        0x00103b7e:    6281        .b      STR      r1,[r0,#0x28]
        0x00103b80:    9804        ..      LDR      r0,[sp,#0x10]
        0x00103b82:    6801        .h      LDR      r1,[r0,#0]
        0x00103b84:    3901        .9      SUBS     r1,#1
        0x00103b86:    6001        .`      STR      r1,[r0,#0]
        0x00103b88:    f2401004    @...    MOVW     r0,#0x104
        0x00103b8c:    f2c20010    ....    MOVT     r0,#0x2010
        0x00103b90:    6800        .h      LDR      r0,[r0,#0]
        0x00103b92:    2800        .(      CMP      r0,#0
        0x00103b94:    d15d        ].      BNE      0x103c52 ; xTaskRemoveFromEventList + 290
        0x00103b96:    e7ff        ..      B        0x103b98 ; xTaskRemoveFromEventList + 104
        0x00103b98:    9806        ..      LDR      r0,[sp,#0x18]
        0x00103b9a:    6940        @i      LDR      r0,[r0,#0x14]
        0x00103b9c:    9003        ..      STR      r0,[sp,#0xc]
        0x00103b9e:    9806        ..      LDR      r0,[sp,#0x18]
        0x00103ba0:    6881        .h      LDR      r1,[r0,#8]
        0x00103ba2:    68c0        .h      LDR      r0,[r0,#0xc]
        0x00103ba4:    6088        .`      STR      r0,[r1,#8]
        0x00103ba6:    9806        ..      LDR      r0,[sp,#0x18]
        0x00103ba8:    6881        .h      LDR      r1,[r0,#8]
        0x00103baa:    68c0        .h      LDR      r0,[r0,#0xc]
        0x00103bac:    6041        A`      STR      r1,[r0,#4]
        0x00103bae:    9803        ..      LDR      r0,[sp,#0xc]
        0x00103bb0:    6840        @h      LDR      r0,[r0,#4]
        0x00103bb2:    9906        ..      LDR      r1,[sp,#0x18]
        0x00103bb4:    3104        .1      ADDS     r1,#4
        0x00103bb6:    4288        .B      CMP      r0,r1
        0x00103bb8:    d105        ..      BNE      0x103bc6 ; xTaskRemoveFromEventList + 150
        0x00103bba:    e7ff        ..      B        0x103bbc ; xTaskRemoveFromEventList + 140
        0x00103bbc:    9806        ..      LDR      r0,[sp,#0x18]
        0x00103bbe:    68c0        .h      LDR      r0,[r0,#0xc]
        0x00103bc0:    9903        ..      LDR      r1,[sp,#0xc]
        0x00103bc2:    6048        H`      STR      r0,[r1,#4]
        0x00103bc4:    e7ff        ..      B        0x103bc6 ; xTaskRemoveFromEventList + 150
        0x00103bc6:    9806        ..      LDR      r0,[sp,#0x18]
        0x00103bc8:    2100        .!      MOVS     r1,#0
        0x00103bca:    6141        Aa      STR      r1,[r0,#0x14]
        0x00103bcc:    9803        ..      LDR      r0,[sp,#0xc]
        0x00103bce:    6801        .h      LDR      r1,[r0,#0]
        0x00103bd0:    3901        .9      SUBS     r1,#1
        0x00103bd2:    6001        .`      STR      r1,[r0,#0]
        0x00103bd4:    9806        ..      LDR      r0,[sp,#0x18]
        0x00103bd6:    6ac0        .j      LDR      r0,[r0,#0x2c]
        0x00103bd8:    f240110c    @...    MOVW     r1,#0x10c
        0x00103bdc:    f2c20110    ....    MOVT     r1,#0x2010
        0x00103be0:    6809        .h      LDR      r1,[r1,#0]
        0x00103be2:    4288        .B      CMP      r0,r1
        0x00103be4:    d908        ..      BLS      0x103bf8 ; xTaskRemoveFromEventList + 200
        0x00103be6:    e7ff        ..      B        0x103be8 ; xTaskRemoveFromEventList + 184
        0x00103be8:    9806        ..      LDR      r0,[sp,#0x18]
        0x00103bea:    6ac0        .j      LDR      r0,[r0,#0x2c]
        0x00103bec:    f240110c    @...    MOVW     r1,#0x10c
        0x00103bf0:    f2c20110    ....    MOVT     r1,#0x2010
        0x00103bf4:    6008        .`      STR      r0,[r1,#0]
        0x00103bf6:    e7ff        ..      B        0x103bf8 ; xTaskRemoveFromEventList + 200
        0x00103bf8:    9806        ..      LDR      r0,[sp,#0x18]
        0x00103bfa:    6ac0        .j      LDR      r0,[r0,#0x2c]
        0x00103bfc:    eb000180    ....    ADD      r1,r0,r0,LSL #2
        0x00103c00:    f2401010    @...    MOVW     r0,#0x110
        0x00103c04:    f2c20010    ....    MOVT     r0,#0x2010
        0x00103c08:    eb000181    ....    ADD      r1,r0,r1,LSL #2
        0x00103c0c:    6849        Ih      LDR      r1,[r1,#4]
        0x00103c0e:    9102        ..      STR      r1,[sp,#8]
        0x00103c10:    9902        ..      LDR      r1,[sp,#8]
        0x00103c12:    9a06        ..      LDR      r2,[sp,#0x18]
        0x00103c14:    6091        .`      STR      r1,[r2,#8]
        0x00103c16:    9902        ..      LDR      r1,[sp,#8]
        0x00103c18:    6889        .h      LDR      r1,[r1,#8]
        0x00103c1a:    9a06        ..      LDR      r2,[sp,#0x18]
        0x00103c1c:    60d1        .`      STR      r1,[r2,#0xc]
        0x00103c1e:    9906        ..      LDR      r1,[sp,#0x18]
        0x00103c20:    3104        .1      ADDS     r1,#4
        0x00103c22:    9a02        ..      LDR      r2,[sp,#8]
        0x00103c24:    6892        .h      LDR      r2,[r2,#8]
        0x00103c26:    6051        Q`      STR      r1,[r2,#4]
        0x00103c28:    9906        ..      LDR      r1,[sp,#0x18]
        0x00103c2a:    3104        .1      ADDS     r1,#4
        0x00103c2c:    9a02        ..      LDR      r2,[sp,#8]
        0x00103c2e:    6091        .`      STR      r1,[r2,#8]
        0x00103c30:    9906        ..      LDR      r1,[sp,#0x18]
        0x00103c32:    6aca        .j      LDR      r2,[r1,#0x2c]
        0x00103c34:    eb020282    ....    ADD      r2,r2,r2,LSL #2
        0x00103c38:    eb000282    ....    ADD      r2,r0,r2,LSL #2
        0x00103c3c:    614a        Ja      STR      r2,[r1,#0x14]
        0x00103c3e:    9906        ..      LDR      r1,[sp,#0x18]
        0x00103c40:    6ac9        .j      LDR      r1,[r1,#0x2c]
        0x00103c42:    eb010181    ....    ADD      r1,r1,r1,LSL #2
        0x00103c46:    f8502021    P.!     LDR      r2,[r0,r1,LSL #2]
        0x00103c4a:    3201        .2      ADDS     r2,#1
        0x00103c4c:    f8402021    @.!     STR      r2,[r0,r1,LSL #2]
        0x00103c50:    e01b        ..      B        0x103c8a ; xTaskRemoveFromEventList + 346
        0x00103c52:    f240200c    @..     MOVW     r0,#0x20c
        0x00103c56:    f2c20010    ....    MOVT     r0,#0x2010
        0x00103c5a:    6841        Ah      LDR      r1,[r0,#4]
        0x00103c5c:    9101        ..      STR      r1,[sp,#4]
        0x00103c5e:    9901        ..      LDR      r1,[sp,#4]
        0x00103c60:    9a06        ..      LDR      r2,[sp,#0x18]
        0x00103c62:    61d1        .a      STR      r1,[r2,#0x1c]
        0x00103c64:    9901        ..      LDR      r1,[sp,#4]
        0x00103c66:    6889        .h      LDR      r1,[r1,#8]
        0x00103c68:    9a06        ..      LDR      r2,[sp,#0x18]
        0x00103c6a:    6211        .b      STR      r1,[r2,#0x20]
        0x00103c6c:    9906        ..      LDR      r1,[sp,#0x18]
        0x00103c6e:    3118        .1      ADDS     r1,r1,#0x18
        0x00103c70:    9a01        ..      LDR      r2,[sp,#4]
        0x00103c72:    6892        .h      LDR      r2,[r2,#8]
        0x00103c74:    6051        Q`      STR      r1,[r2,#4]
        0x00103c76:    9906        ..      LDR      r1,[sp,#0x18]
        0x00103c78:    3118        .1      ADDS     r1,r1,#0x18
        0x00103c7a:    9a01        ..      LDR      r2,[sp,#4]
        0x00103c7c:    6091        .`      STR      r1,[r2,#8]
        0x00103c7e:    9906        ..      LDR      r1,[sp,#0x18]
        0x00103c80:    6288        .b      STR      r0,[r1,#0x28]
        0x00103c82:    6801        .h      LDR      r1,[r0,#0]
        0x00103c84:    3101        .1      ADDS     r1,#1
        0x00103c86:    6001        .`      STR      r1,[r0,#0]
        0x00103c88:    e7ff        ..      B        0x103c8a ; xTaskRemoveFromEventList + 346
        0x00103c8a:    9806        ..      LDR      r0,[sp,#0x18]
        0x00103c8c:    6ac0        .j      LDR      r0,[r0,#0x2c]
        0x00103c8e:    f2401100    @...    MOVW     r1,#0x100
        0x00103c92:    f2c20110    ....    MOVT     r1,#0x2010
        0x00103c96:    6809        .h      LDR      r1,[r1,#0]
        0x00103c98:    6ac9        .j      LDR      r1,[r1,#0x2c]
        0x00103c9a:    4288        .B      CMP      r0,r1
        0x00103c9c:    d908        ..      BLS      0x103cb0 ; xTaskRemoveFromEventList + 384
        0x00103c9e:    e7ff        ..      B        0x103ca0 ; xTaskRemoveFromEventList + 368
        0x00103ca0:    2001        .       MOVS     r0,#1
        0x00103ca2:    9005        ..      STR      r0,[sp,#0x14]
        0x00103ca4:    f2401108    @...    MOVW     r1,#0x108
        0x00103ca8:    f2c20110    ....    MOVT     r1,#0x2010
        0x00103cac:    6008        .`      STR      r0,[r1,#0]
        0x00103cae:    e002        ..      B        0x103cb6 ; xTaskRemoveFromEventList + 390
        0x00103cb0:    2000        .       MOVS     r0,#0
        0x00103cb2:    9005        ..      STR      r0,[sp,#0x14]
        0x00103cb4:    e7ff        ..      B        0x103cb6 ; xTaskRemoveFromEventList + 390
        0x00103cb6:    9805        ..      LDR      r0,[sp,#0x14]
        0x00103cb8:    b008        ..      ADD      sp,sp,#0x20
        0x00103cba:    bd80        ..      POP      {r7,pc}
    xTaskResumeAll
        0x00103cbc:    b580        ..      PUSH     {r7,lr}
        0x00103cbe:    b086        ..      SUB      sp,sp,#0x18
        0x00103cc0:    2000        .       MOVS     r0,#0
        0x00103cc2:    9005        ..      STR      r0,[sp,#0x14]
        0x00103cc4:    9004        ..      STR      r0,[sp,#0x10]
        0x00103cc6:    f2401004    @...    MOVW     r0,#0x104
        0x00103cca:    f2c20010    ....    MOVT     r0,#0x2010
        0x00103cce:    6800        .h      LDR      r0,[r0,#0]
        0x00103cd0:    b920         .      CBNZ     r0,0x103cdc ; xTaskResumeAll + 32
        0x00103cd2:    e7ff        ..      B        0x103cd4 ; xTaskResumeAll + 24
        0x00103cd4:    f7fefe56    ..V.    BL       ulSetInterruptMask ; 0x102984
        0x00103cd8:    e7ff        ..      B        0x103cda ; xTaskResumeAll + 30
        0x00103cda:    e7fe        ..      B        0x103cda ; xTaskResumeAll + 30
        0x00103cdc:    f7feff9e    ....    BL       vPortEnterCritical ; 0x102c1c
        0x00103ce0:    f2401004    @...    MOVW     r0,#0x104
        0x00103ce4:    f2c20010    ....    MOVT     r0,#0x2010
        0x00103ce8:    6801        .h      LDR      r1,[r0,#0]
        0x00103cea:    3901        .9      SUBS     r1,#1
        0x00103cec:    6001        .`      STR      r1,[r0,#0]
        0x00103cee:    6800        .h      LDR      r0,[r0,#0]
        0x00103cf0:    2800        .(      CMP      r0,#0
        0x00103cf2:    f04080e4    @...    BNE.W    0x103ebe ; xTaskResumeAll + 514
        0x00103cf6:    e7ff        ..      B        0x103cf8 ; xTaskResumeAll + 60
        0x00103cf8:    f24010d8    @...    MOVW     r0,#0x1d8
        0x00103cfc:    f2c20010    ....    MOVT     r0,#0x2010
        0x00103d00:    6800        .h      LDR      r0,[r0,#0]
        0x00103d02:    2800        .(      CMP      r0,#0
        0x00103d04:    f00080da    ....    BEQ.W    0x103ebc ; xTaskResumeAll + 512
        0x00103d08:    e7ff        ..      B        0x103d0a ; xTaskResumeAll + 78
        0x00103d0a:    e7ff        ..      B        0x103d0c ; xTaskResumeAll + 80
        0x00103d0c:    f240200c    @..     MOVW     r0,#0x20c
        0x00103d10:    f2c20010    ....    MOVT     r0,#0x2010
        0x00103d14:    6800        .h      LDR      r0,[r0,#0]
        0x00103d16:    2800        .(      CMP      r0,#0
        0x00103d18:    f0008096    ....    BEQ.W    0x103e48 ; xTaskResumeAll + 396
        0x00103d1c:    e7ff        ..      B        0x103d1e ; xTaskResumeAll + 98
        0x00103d1e:    f240200c    @..     MOVW     r0,#0x20c
        0x00103d22:    f2c20010    ....    MOVT     r0,#0x2010
        0x00103d26:    68c0        .h      LDR      r0,[r0,#0xc]
        0x00103d28:    68c0        .h      LDR      r0,[r0,#0xc]
        0x00103d2a:    9005        ..      STR      r0,[sp,#0x14]
        0x00103d2c:    9805        ..      LDR      r0,[sp,#0x14]
        0x00103d2e:    6a80        .j      LDR      r0,[r0,#0x28]
        0x00103d30:    9003        ..      STR      r0,[sp,#0xc]
        0x00103d32:    9805        ..      LDR      r0,[sp,#0x14]
        0x00103d34:    69c1        .i      LDR      r1,[r0,#0x1c]
        0x00103d36:    6a00        .j      LDR      r0,[r0,#0x20]
        0x00103d38:    6088        .`      STR      r0,[r1,#8]
        0x00103d3a:    9805        ..      LDR      r0,[sp,#0x14]
        0x00103d3c:    69c1        .i      LDR      r1,[r0,#0x1c]
        0x00103d3e:    6a00        .j      LDR      r0,[r0,#0x20]
        0x00103d40:    6041        A`      STR      r1,[r0,#4]
        0x00103d42:    9803        ..      LDR      r0,[sp,#0xc]
        0x00103d44:    6840        @h      LDR      r0,[r0,#4]
        0x00103d46:    9905        ..      LDR      r1,[sp,#0x14]
        0x00103d48:    3118        .1      ADDS     r1,r1,#0x18
        0x00103d4a:    4288        .B      CMP      r0,r1
        0x00103d4c:    d105        ..      BNE      0x103d5a ; xTaskResumeAll + 158
        0x00103d4e:    e7ff        ..      B        0x103d50 ; xTaskResumeAll + 148
        0x00103d50:    9805        ..      LDR      r0,[sp,#0x14]
        0x00103d52:    6a00        .j      LDR      r0,[r0,#0x20]
        0x00103d54:    9903        ..      LDR      r1,[sp,#0xc]
        0x00103d56:    6048        H`      STR      r0,[r1,#4]
        0x00103d58:    e7ff        ..      B        0x103d5a ; xTaskResumeAll + 158
        0x00103d5a:    9805        ..      LDR      r0,[sp,#0x14]
        0x00103d5c:    2100        .!      MOVS     r1,#0
        0x00103d5e:    6281        .b      STR      r1,[r0,#0x28]
        0x00103d60:    9803        ..      LDR      r0,[sp,#0xc]
        0x00103d62:    6801        .h      LDR      r1,[r0,#0]
        0x00103d64:    3901        .9      SUBS     r1,#1
        0x00103d66:    6001        .`      STR      r1,[r0,#0]
        0x00103d68:    9805        ..      LDR      r0,[sp,#0x14]
        0x00103d6a:    6940        @i      LDR      r0,[r0,#0x14]
        0x00103d6c:    9002        ..      STR      r0,[sp,#8]
        0x00103d6e:    9805        ..      LDR      r0,[sp,#0x14]
        0x00103d70:    6881        .h      LDR      r1,[r0,#8]
        0x00103d72:    68c0        .h      LDR      r0,[r0,#0xc]
        0x00103d74:    6088        .`      STR      r0,[r1,#8]
        0x00103d76:    9805        ..      LDR      r0,[sp,#0x14]
        0x00103d78:    6881        .h      LDR      r1,[r0,#8]
        0x00103d7a:    68c0        .h      LDR      r0,[r0,#0xc]
        0x00103d7c:    6041        A`      STR      r1,[r0,#4]
        0x00103d7e:    9802        ..      LDR      r0,[sp,#8]
        0x00103d80:    6840        @h      LDR      r0,[r0,#4]
        0x00103d82:    9905        ..      LDR      r1,[sp,#0x14]
        0x00103d84:    3104        .1      ADDS     r1,#4
        0x00103d86:    4288        .B      CMP      r0,r1
        0x00103d88:    d105        ..      BNE      0x103d96 ; xTaskResumeAll + 218
        0x00103d8a:    e7ff        ..      B        0x103d8c ; xTaskResumeAll + 208
        0x00103d8c:    9805        ..      LDR      r0,[sp,#0x14]
        0x00103d8e:    68c0        .h      LDR      r0,[r0,#0xc]
        0x00103d90:    9902        ..      LDR      r1,[sp,#8]
        0x00103d92:    6048        H`      STR      r0,[r1,#4]
        0x00103d94:    e7ff        ..      B        0x103d96 ; xTaskResumeAll + 218
        0x00103d96:    9805        ..      LDR      r0,[sp,#0x14]
        0x00103d98:    2100        .!      MOVS     r1,#0
        0x00103d9a:    6141        Aa      STR      r1,[r0,#0x14]
        0x00103d9c:    9802        ..      LDR      r0,[sp,#8]
        0x00103d9e:    6801        .h      LDR      r1,[r0,#0]
        0x00103da0:    3901        .9      SUBS     r1,#1
        0x00103da2:    6001        .`      STR      r1,[r0,#0]
        0x00103da4:    9805        ..      LDR      r0,[sp,#0x14]
        0x00103da6:    6ac0        .j      LDR      r0,[r0,#0x2c]
        0x00103da8:    f240110c    @...    MOVW     r1,#0x10c
        0x00103dac:    f2c20110    ....    MOVT     r1,#0x2010
        0x00103db0:    6809        .h      LDR      r1,[r1,#0]
        0x00103db2:    4288        .B      CMP      r0,r1
        0x00103db4:    d908        ..      BLS      0x103dc8 ; xTaskResumeAll + 268
        0x00103db6:    e7ff        ..      B        0x103db8 ; xTaskResumeAll + 252
        0x00103db8:    9805        ..      LDR      r0,[sp,#0x14]
        0x00103dba:    6ac0        .j      LDR      r0,[r0,#0x2c]
        0x00103dbc:    f240110c    @...    MOVW     r1,#0x10c
        0x00103dc0:    f2c20110    ....    MOVT     r1,#0x2010
        0x00103dc4:    6008        .`      STR      r0,[r1,#0]
        0x00103dc6:    e7ff        ..      B        0x103dc8 ; xTaskResumeAll + 268
        0x00103dc8:    9805        ..      LDR      r0,[sp,#0x14]
        0x00103dca:    6ac0        .j      LDR      r0,[r0,#0x2c]
        0x00103dcc:    eb000180    ....    ADD      r1,r0,r0,LSL #2
        0x00103dd0:    f2401010    @...    MOVW     r0,#0x110
        0x00103dd4:    f2c20010    ....    MOVT     r0,#0x2010
        0x00103dd8:    eb000181    ....    ADD      r1,r0,r1,LSL #2
        0x00103ddc:    6849        Ih      LDR      r1,[r1,#4]
        0x00103dde:    9101        ..      STR      r1,[sp,#4]
        0x00103de0:    9901        ..      LDR      r1,[sp,#4]
        0x00103de2:    9a05        ..      LDR      r2,[sp,#0x14]
        0x00103de4:    6091        .`      STR      r1,[r2,#8]
        0x00103de6:    9901        ..      LDR      r1,[sp,#4]
        0x00103de8:    6889        .h      LDR      r1,[r1,#8]
        0x00103dea:    9a05        ..      LDR      r2,[sp,#0x14]
        0x00103dec:    60d1        .`      STR      r1,[r2,#0xc]
        0x00103dee:    9905        ..      LDR      r1,[sp,#0x14]
        0x00103df0:    3104        .1      ADDS     r1,#4
        0x00103df2:    9a01        ..      LDR      r2,[sp,#4]
        0x00103df4:    6892        .h      LDR      r2,[r2,#8]
        0x00103df6:    6051        Q`      STR      r1,[r2,#4]
        0x00103df8:    9905        ..      LDR      r1,[sp,#0x14]
        0x00103dfa:    3104        .1      ADDS     r1,#4
        0x00103dfc:    9a01        ..      LDR      r2,[sp,#4]
        0x00103dfe:    6091        .`      STR      r1,[r2,#8]
        0x00103e00:    9905        ..      LDR      r1,[sp,#0x14]
        0x00103e02:    6aca        .j      LDR      r2,[r1,#0x2c]
        0x00103e04:    eb020282    ....    ADD      r2,r2,r2,LSL #2
        0x00103e08:    eb000282    ....    ADD      r2,r0,r2,LSL #2
        0x00103e0c:    614a        Ja      STR      r2,[r1,#0x14]
        0x00103e0e:    9905        ..      LDR      r1,[sp,#0x14]
        0x00103e10:    6ac9        .j      LDR      r1,[r1,#0x2c]
        0x00103e12:    eb010181    ....    ADD      r1,r1,r1,LSL #2
        0x00103e16:    f8502021    P.!     LDR      r2,[r0,r1,LSL #2]
        0x00103e1a:    3201        .2      ADDS     r2,#1
        0x00103e1c:    f8402021    @.!     STR      r2,[r0,r1,LSL #2]
        0x00103e20:    9805        ..      LDR      r0,[sp,#0x14]
        0x00103e22:    6ac0        .j      LDR      r0,[r0,#0x2c]
        0x00103e24:    f2401100    @...    MOVW     r1,#0x100
        0x00103e28:    f2c20110    ....    MOVT     r1,#0x2010
        0x00103e2c:    6809        .h      LDR      r1,[r1,#0]
        0x00103e2e:    6ac9        .j      LDR      r1,[r1,#0x2c]
        0x00103e30:    4288        .B      CMP      r0,r1
        0x00103e32:    d307        ..      BCC      0x103e44 ; xTaskResumeAll + 392
        0x00103e34:    e7ff        ..      B        0x103e36 ; xTaskResumeAll + 378
        0x00103e36:    f2401008    @...    MOVW     r0,#0x108
        0x00103e3a:    f2c20010    ....    MOVT     r0,#0x2010
        0x00103e3e:    2101        .!      MOVS     r1,#1
        0x00103e40:    6001        .`      STR      r1,[r0,#0]
        0x00103e42:    e000        ..      B        0x103e46 ; xTaskResumeAll + 394
        0x00103e44:    e7ff        ..      B        0x103e46 ; xTaskResumeAll + 394
        0x00103e46:    e761        a.      B        0x103d0c ; xTaskResumeAll + 80
        0x00103e48:    9805        ..      LDR      r0,[sp,#0x14]
        0x00103e4a:    b118        ..      CBZ      r0,0x103e54 ; xTaskResumeAll + 408
        0x00103e4c:    e7ff        ..      B        0x103e4e ; xTaskResumeAll + 402
        0x00103e4e:    f7fefabf    ....    BL       prvResetNextTaskUnblockTime ; 0x1023d0
        0x00103e52:    e7ff        ..      B        0x103e54 ; xTaskResumeAll + 408
        0x00103e54:    f240205c    @.\     MOVW     r0,#0x25c
        0x00103e58:    f2c20010    ....    MOVT     r0,#0x2010
        0x00103e5c:    6800        .h      LDR      r0,[r0,#0]
        0x00103e5e:    9000        ..      STR      r0,[sp,#0]
        0x00103e60:    9800        ..      LDR      r0,[sp,#0]
        0x00103e62:    b1e0        ..      CBZ      r0,0x103e9e ; xTaskResumeAll + 482
        0x00103e64:    e7ff        ..      B        0x103e66 ; xTaskResumeAll + 426
        0x00103e66:    e7ff        ..      B        0x103e68 ; xTaskResumeAll + 428
        0x00103e68:    f7fffd32    ..2.    BL       xTaskIncrementTick ; 0x1038d0
        0x00103e6c:    b138        8.      CBZ      r0,0x103e7e ; xTaskResumeAll + 450
        0x00103e6e:    e7ff        ..      B        0x103e70 ; xTaskResumeAll + 436
        0x00103e70:    f2401008    @...    MOVW     r0,#0x108
        0x00103e74:    f2c20010    ....    MOVT     r0,#0x2010
        0x00103e78:    2101        .!      MOVS     r1,#1
        0x00103e7a:    6001        .`      STR      r1,[r0,#0]
        0x00103e7c:    e000        ..      B        0x103e80 ; xTaskResumeAll + 452
        0x00103e7e:    e7ff        ..      B        0x103e80 ; xTaskResumeAll + 452
        0x00103e80:    9800        ..      LDR      r0,[sp,#0]
        0x00103e82:    3801        .8      SUBS     r0,#1
        0x00103e84:    9000        ..      STR      r0,[sp,#0]
        0x00103e86:    e7ff        ..      B        0x103e88 ; xTaskResumeAll + 460
        0x00103e88:    9800        ..      LDR      r0,[sp,#0]
        0x00103e8a:    2800        .(      CMP      r0,#0
        0x00103e8c:    d1ec        ..      BNE      0x103e68 ; xTaskResumeAll + 428
        0x00103e8e:    e7ff        ..      B        0x103e90 ; xTaskResumeAll + 468
        0x00103e90:    f240205c    @.\     MOVW     r0,#0x25c
        0x00103e94:    f2c20010    ....    MOVT     r0,#0x2010
        0x00103e98:    2100        .!      MOVS     r1,#0
        0x00103e9a:    6001        .`      STR      r1,[r0,#0]
        0x00103e9c:    e000        ..      B        0x103ea0 ; xTaskResumeAll + 484
        0x00103e9e:    e7ff        ..      B        0x103ea0 ; xTaskResumeAll + 484
        0x00103ea0:    f2401008    @...    MOVW     r0,#0x108
        0x00103ea4:    f2c20010    ....    MOVT     r0,#0x2010
        0x00103ea8:    6800        .h      LDR      r0,[r0,#0]
        0x00103eaa:    b128        (.      CBZ      r0,0x103eb8 ; xTaskResumeAll + 508
        0x00103eac:    e7ff        ..      B        0x103eae ; xTaskResumeAll + 498
        0x00103eae:    2001        .       MOVS     r0,#1
        0x00103eb0:    9004        ..      STR      r0,[sp,#0x10]
        0x00103eb2:    f7feffb7    ....    BL       vPortYield ; 0x102e24
        0x00103eb6:    e000        ..      B        0x103eba ; xTaskResumeAll + 510
        0x00103eb8:    e7ff        ..      B        0x103eba ; xTaskResumeAll + 510
        0x00103eba:    e7ff        ..      B        0x103ebc ; xTaskResumeAll + 512
        0x00103ebc:    e000        ..      B        0x103ec0 ; xTaskResumeAll + 516
        0x00103ebe:    e7ff        ..      B        0x103ec0 ; xTaskResumeAll + 516
        0x00103ec0:    f7fefebc    ....    BL       vPortExitCritical ; 0x102c3c
        0x00103ec4:    9804        ..      LDR      r0,[sp,#0x10]
        0x00103ec6:    b006        ..      ADD      sp,sp,#0x18
        0x00103ec8:    bd80        ..      POP      {r7,pc}
        0x00103eca:    0000        ..      MOVS     r0,r0
    xTimerCreateTimerTask
        0x00103ecc:    b580        ..      PUSH     {r7,lr}
        0x00103ece:    b086        ..      SUB      sp,sp,#0x18
        0x00103ed0:    2000        .       MOVS     r0,#0
        0x00103ed2:    9005        ..      STR      r0,[sp,#0x14]
        0x00103ed4:    f7fdfe48    ..H.    BL       prvCheckForValidListAndQueue ; 0x101b68
        0x00103ed8:    f2402068    @.h     MOVW     r0,#0x268
        0x00103edc:    f2c20010    ....    MOVT     r0,#0x2010
        0x00103ee0:    6800        .h      LDR      r0,[r0,#0]
        0x00103ee2:    b320         .      CBZ      r0,0x103f2e ; xTimerCreateTimerTask + 98
        0x00103ee4:    e7ff        ..      B        0x103ee6 ; xTimerCreateTimerTask + 26
        0x00103ee6:    2000        .       MOVS     r0,#0
        0x00103ee8:    9004        ..      STR      r0,[sp,#0x10]
        0x00103eea:    9003        ..      STR      r0,[sp,#0xc]
        0x00103eec:    a804        ..      ADD      r0,sp,#0x10
        0x00103eee:    a903        ..      ADD      r1,sp,#0xc
        0x00103ef0:    aa02        ..      ADD      r2,sp,#8
        0x00103ef2:    f7fefd8d    ....    BL       vApplicationGetTimerTaskMemory ; 0x102a10
        0x00103ef6:    9a02        ..      LDR      r2,[sp,#8]
        0x00103ef8:    9803        ..      LDR      r0,[sp,#0xc]
        0x00103efa:    9904        ..      LDR      r1,[sp,#0x10]
        0x00103efc:    9101        ..      STR      r1,[sp,#4]
        0x00103efe:    9000        ..      STR      r0,[sp,#0]
        0x00103f00:    f2425001    B..P    MOV      r0,#0x2501
        0x00103f04:    f2c00010    ....    MOVT     r0,#0x10
        0x00103f08:    f6442128    D.(!    MOV      r1,#0x4a28
        0x00103f0c:    f2c00110    ....    MOVT     r1,#0x10
        0x00103f10:    2303        .#      MOVS     r3,#3
        0x00103f12:    f7fffc53    ..S.    BL       xTaskCreateStatic ; 0x1037bc
        0x00103f16:    f240216c    @.l!    MOVW     r1,#0x26c
        0x00103f1a:    f2c20110    ....    MOVT     r1,#0x2010
        0x00103f1e:    6008        .`      STR      r0,[r1,#0]
        0x00103f20:    6808        .h      LDR      r0,[r1,#0]
        0x00103f22:    b118        ..      CBZ      r0,0x103f2c ; xTimerCreateTimerTask + 96
        0x00103f24:    e7ff        ..      B        0x103f26 ; xTimerCreateTimerTask + 90
        0x00103f26:    2001        .       MOVS     r0,#1
        0x00103f28:    9005        ..      STR      r0,[sp,#0x14]
        0x00103f2a:    e7ff        ..      B        0x103f2c ; xTimerCreateTimerTask + 96
        0x00103f2c:    e000        ..      B        0x103f30 ; xTimerCreateTimerTask + 100
        0x00103f2e:    e7ff        ..      B        0x103f30 ; xTimerCreateTimerTask + 100
        0x00103f30:    9805        ..      LDR      r0,[sp,#0x14]
        0x00103f32:    b920         .      CBNZ     r0,0x103f3e ; xTimerCreateTimerTask + 114
        0x00103f34:    e7ff        ..      B        0x103f36 ; xTimerCreateTimerTask + 106
        0x00103f36:    f7fefd25    ..%.    BL       ulSetInterruptMask ; 0x102984
        0x00103f3a:    e7ff        ..      B        0x103f3c ; xTimerCreateTimerTask + 112
        0x00103f3c:    e7fe        ..      B        0x103f3c ; xTimerCreateTimerTask + 112
        0x00103f3e:    9805        ..      LDR      r0,[sp,#0x14]
        0x00103f40:    b006        ..      ADD      sp,sp,#0x18
        0x00103f42:    bd80        ..      POP      {r7,pc}
    $t
    CL$$btod_d2e
    _btod_d2e
        0x00103f44:    ea5f0c40    _.@.    LSLS     r12,r0,#1
        0x00103f48:    bf08        ..      IT       EQ
        0x00103f4a:    f0910f00    ....    TEQEQ    r1,#0
        0x00103f4e:    ea4f238c    O..#    LSL      r3,r12,#10
        0x00103f52:    ea4f22c1    O.."    LSL      r2,r1,#11
        0x00103f56:    ea435151    C.QQ    ORR      r1,r3,r1,LSR #21
        0x00103f5a:    ea4f501c    O..P    LSR      r0,r12,#20
        0x00103f5e:    bf18        ..      IT       NE
        0x00103f60:    f50040f0    ...@    ADDNE    r0,r0,#0x7800
        0x00103f64:    ea4f0030    O.0.    RRX      r0,r0
        0x00103f68:    bf18        ..      IT       NE
        0x00103f6a:    f0414100    A..A    ORRNE    r1,r1,#0x80000000
        0x00103f6e:    ea5f5c6c    _.l\    ASRS     r12,r12,#21
        0x00103f72:    f0008029    ..).    BEQ.W    _d2e_norm_op1 ; 0x103fc8
        0x00103f76:    f1bc3fff    ...?    CMP      r12,#0xffffffff
        0x00103f7a:    bf08        ..      IT       EQ
        0x00103f7c:    f0404080    @..@    ORREQ    r0,r0,#0x40000000
        0x00103f80:    4770        pG      BX       lr
    CL$$btod_d2e_denorm_low
    _d2e_denorm_low
        0x00103f82:    0c13        ..      LSRS     r3,r2,#16
        0x00103f84:    bf06        ..      ITTE     EQ
        0x00103f86:    0412        ..      LSLEQ    r2,r2,#16
        0x00103f88:    f04f0c10    O...    MOVEQ    r12,#0x10
        0x00103f8c:    f04f0c00    O...    MOVNE    r12,#0
        0x00103f90:    0e13        ..      LSRS     r3,r2,#24
        0x00103f92:    bf04        ..      ITT      EQ
        0x00103f94:    0212        ..      LSLEQ    r2,r2,#8
        0x00103f96:    f10c0c08    ....    ADDEQ    r12,r12,#8
        0x00103f9a:    0f13        ..      LSRS     r3,r2,#28
        0x00103f9c:    bf04        ..      ITT      EQ
        0x00103f9e:    0112        ..      LSLEQ    r2,r2,#4
        0x00103fa0:    f10c0c04    ....    ADDEQ    r12,r12,#4
        0x00103fa4:    0f93        ..      LSRS     r3,r2,#30
        0x00103fa6:    bf04        ..      ITT      EQ
        0x00103fa8:    0092        ..      LSLEQ    r2,r2,#2
        0x00103faa:    f10c0c02    ....    ADDEQ    r12,r12,#2
        0x00103fae:    0fd3        ..      LSRS     r3,r2,#31
        0x00103fb0:    bf04        ..      ITT      EQ
        0x00103fb2:    0052        R.      LSLEQ    r2,r2,#1
        0x00103fb4:    f10c0c01    ....    ADDEQ    r12,r12,#1
        0x00103fb8:    4611        .F      MOV      r1,r2
        0x00103fba:    f04f0200    O...    MOV      r2,#0
        0x00103fbe:    f1a0001f    ....    SUB      r0,r0,#0x1f
        0x00103fc2:    eba0000c    ....    SUB      r0,r0,r12
        0x00103fc6:    4770        pG      BX       lr
    CL$$btod_d2e_norm_op1
    _d2e_norm_op1
        0x00103fc8:    f0114f00    ...O    TST      r1,#0x80000000
        0x00103fcc:    bf08        ..      IT       EQ
        0x00103fce:    4770        pG      BXEQ     lr
        0x00103fd0:    f0314100    1..A    BICS     r1,r1,#0x80000000
        0x00103fd4:    f43fafd5    ?...    BEQ.W    _d2e_denorm_low ; 0x103f82
        0x00103fd8:    0c0b        ..      LSRS     r3,r1,#16
        0x00103fda:    bf06        ..      ITTE     EQ
        0x00103fdc:    0409        ..      LSLEQ    r1,r1,#16
        0x00103fde:    f04f0c10    O...    MOVEQ    r12,#0x10
        0x00103fe2:    f04f0c00    O...    MOVNE    r12,#0
        0x00103fe6:    0e0b        ..      LSRS     r3,r1,#24
        0x00103fe8:    bf04        ..      ITT      EQ
        0x00103fea:    0209        ..      LSLEQ    r1,r1,#8
        0x00103fec:    f10c0c08    ....    ADDEQ    r12,r12,#8
        0x00103ff0:    0f0b        ..      LSRS     r3,r1,#28
        0x00103ff2:    bf04        ..      ITT      EQ
        0x00103ff4:    0109        ..      LSLEQ    r1,r1,#4
        0x00103ff6:    f10c0c04    ....    ADDEQ    r12,r12,#4
        0x00103ffa:    0f8b        ..      LSRS     r3,r1,#30
        0x00103ffc:    bf04        ..      ITT      EQ
        0x00103ffe:    0089        ..      LSLEQ    r1,r1,#2
        0x00104000:    f10c0c02    ....    ADDEQ    r12,r12,#2
        0x00104004:    0fcb        ..      LSRS     r3,r1,#31
        0x00104006:    bf04        ..      ITT      EQ
        0x00104008:    0049        I.      LSLEQ    r1,r1,#1
        0x0010400a:    f10c0c01    ....    ADDEQ    r12,r12,#1
        0x0010400e:    f1cc0320    .. .    RSB      r3,r12,#0x20
        0x00104012:    fa22f303    "...    LSR      r3,r2,r3
        0x00104016:    ea410103    A...    ORR      r1,r1,r3
        0x0010401a:    fa02f20c    ....    LSL      r2,r2,r12
        0x0010401e:    eba0000c    ....    SUB      r0,r0,r12
        0x00104022:    f1000001    ....    ADD      r0,r0,#1
        0x00104026:    4770        pG      BX       lr
    CL$$btod_div_common
    __btod_div_common
        0x00104028:    f023477f    #..G    BIC      r7,r3,#0xff000000
        0x0010402c:    f0204c7f     ..L    BIC      r12,r0,#0xff000000
        0x00104030:    ea800003    ....    EOR      r0,r0,r3
        0x00104034:    f0004000    ...@    AND      r0,r0,#0x80000000
        0x00104038:    ebac0307    ....    SUB      r3,r12,r7
        0x0010403c:    f503537c    ..|S    ADD      r3,r3,#0x3f00
        0x00104040:    f10303ff    ....    ADD      r3,r3,#0xff
        0x00104044:    e92d4980    -..I    PUSH     {r7,r8,r11,lr}
        0x00104048:    b409        ..      PUSH     {r0,r3}
        0x0010404a:    ea4f4314    O..C    LSR      r3,r4,#16
        0x0010404e:    ea244803    $..H    BIC      r8,r4,r3,LSL #16
        0x00104052:    ea4f4b15    O..K    LSR      r11,r5,#16
        0x00104056:    ea254e0b    %..N    BIC      lr,r5,r11,LSL #16
        0x0010405a:    f20f2604    ...&    ADR.W    r6,{pc}+0x206 ; 0x104260
        0x0010405e:    eb062713    ...'    ADD      r7,r6,r3,LSR #8
        0x00104062:    783e        >x      LDRB     r6,[r7,#0]
        0x00104064:    fb036706    ...g    MLA      r7,r3,r6,r6
        0x00104068:    f5c70700    ....    RSB      r7,r7,#0x800000
        0x0010406c:    fb07f606    ....    MUL      r6,r7,r6
        0x00104070:    ea4f46d6    O..F    LSR      r6,r6,#19
        0x00104074:    f1060602    ....    ADD      r6,r6,#2
        0x00104078:    ea4f3754    O.T7    LSR      r7,r4,#13
        0x0010407c:    fb076c06    ...l    MLA      r12,r7,r6,r6
        0x00104080:    f1cc5c00    ...\    RSB      r12,r12,#0x20000000
        0x00104084:    ea4f471c    O..G    LSR      r7,r12,#16
        0x00104088:    ea2c4c07    ,..L    BIC      r12,r12,r7,LSL #16
        0x0010408c:    fb0cf506    ....    MUL      r5,r12,r6
        0x00104090:    fb07f406    ....    MUL      r4,r7,r6
        0x00104094:    eb044615    ...F    ADD      r6,r4,r5,LSR #16
        0x00104098:    ea4f1696    O...    LSR      r6,r6,#6
        0x0010409c:    0849        I.      LSRS     r1,r1,#1
        0x0010409e:    ea5f0232    _.2.    RRXS     r2,r2
        0x001040a2:    bf34        4.      ITE      CC
        0x001040a4:    2000        .       MOVCC    r0,#0
        0x001040a6:    f04f4000    O..@    MOVCS    r0,#0x80000000
        0x001040aa:    ea4f37d1    O..7    LSR      r7,r1,#15
        0x001040ae:    fb06fc07    ....    MUL      r12,r6,r7
        0x001040b2:    ea4f4c1c    O..L    LSR      r12,r12,#16
        0x001040b6:    fb0cf70b    ....    MUL      r7,r12,r11
        0x001040ba:    1bd2        ..      SUBS     r2,r2,r7
        0x001040bc:    fb03f70c    ....    MUL      r7,r3,r12
        0x001040c0:    eb610107    a...    SBC      r1,r1,r7
        0x001040c4:    fb0cf70e    ....    MUL      r7,r12,lr
        0x001040c8:    ebb04007    ...@    SUBS     r0,r0,r7,LSL #16
        0x001040cc:    eb724217    r..B    SBCS     r2,r2,r7,LSR #16
        0x001040d0:    fb0cf708    ....    MUL      r7,r12,r8
        0x001040d4:    bf34        4.      ITE      CC
        0x001040d6:    eba24207    ...B    SUBCC    r2,r2,r7,LSL #16
        0x001040da:    ebb24207    ...B    SUBSCS   r2,r2,r7,LSL #16
        0x001040de:    eb614117    a..A    SBC      r1,r1,r7,LSR #16
        0x001040e2:    ea4f440c    O..D    LSL      r4,r12,#16
        0x001040e6:    ea4f0791    O...    LSR      r7,r1,#2
        0x001040ea:    fb06fc07    ....    MUL      r12,r6,r7
        0x001040ee:    ea4f4c1c    O..L    LSR      r12,r12,#16
        0x001040f2:    fb0cf70b    ....    MUL      r7,r12,r11
        0x001040f6:    ebb040c7    ...@    SUBS     r0,r0,r7,LSL #19
        0x001040fa:    eb723257    r.W2    SBCS     r2,r2,r7,LSR #13
        0x001040fe:    fb03f70c    ....    MUL      r7,r3,r12
        0x00104102:    bf34        4.      ITE      CC
        0x00104104:    eba242c7    ...B    SUBCC    r2,r2,r7,LSL #19
        0x00104108:    ebb242c7    ...B    SUBSCS   r2,r2,r7,LSL #19
        0x0010410c:    eb613157    a.W1    SBC      r1,r1,r7,LSR #13
        0x00104110:    fb0cf70e    ....    MUL      r7,r12,lr
        0x00104114:    ebb000c7    ....    SUBS     r0,r0,r7,LSL #3
        0x00104118:    eb727257    r.Wr    SBCS     r2,r2,r7,LSR #29
        0x0010411c:    fb0cf708    ....    MUL      r7,r12,r8
        0x00104120:    bf34        4.      ITE      CC
        0x00104122:    eba202c7    ....    SUBCC    r2,r2,r7,LSL #3
        0x00104126:    ebb202c7    ....    SUBSCS   r2,r2,r7,LSL #3
        0x0010412a:    eb617157    a.Wq    SBC      r1,r1,r7,LSR #29
        0x0010412e:    ea4f6181    O..a    LSL      r1,r1,#26
        0x00104132:    ea411192    A...    ORR      r1,r1,r2,LSR #6
        0x00104136:    ea4f6282    O..b    LSL      r2,r2,#26
        0x0010413a:    ea421290    B...    ORR      r2,r2,r0,LSR #6
        0x0010413e:    ea4f6080    O..`    LSL      r0,r0,#26
        0x00104142:    eb0404cc    ....    ADD      r4,r4,r12,LSL #3
        0x00104146:    9f03        ..      LDR      r7,[sp,#0xc]
        0x00104148:    ea4f37d1    O..7    LSR      r7,r1,#15
        0x0010414c:    fb06fc07    ....    MUL      r12,r6,r7
        0x00104150:    ea4f4c1c    O..L    LSR      r12,r12,#16
        0x00104154:    fb0cf70b    ....    MUL      r7,r12,r11
        0x00104158:    1bd2        ..      SUBS     r2,r2,r7
        0x0010415a:    fb03f70c    ....    MUL      r7,r3,r12
        0x0010415e:    eb610107    a...    SBC      r1,r1,r7
        0x00104162:    fb0cf70e    ....    MUL      r7,r12,lr
        0x00104166:    ebb04007    ...@    SUBS     r0,r0,r7,LSL #16
        0x0010416a:    eb724217    r..B    SBCS     r2,r2,r7,LSR #16
        0x0010416e:    fb0cf708    ....    MUL      r7,r12,r8
        0x00104172:    bf34        4.      ITE      CC
        0x00104174:    eba24207    ...B    SUBCC    r2,r2,r7,LSL #16
        0x00104178:    ebb24207    ...B    SUBSCS   r2,r2,r7,LSL #16
        0x0010417c:    eb614117    a..A    SBC      r1,r1,r7,LSR #16
        0x00104180:    ea4f558c    O..U    LSL      r5,r12,#22
        0x00104184:    eb04249c    ...$    ADD      r4,r4,r12,LSR #10
        0x00104188:    ea4f0791    O...    LSR      r7,r1,#2
        0x0010418c:    fb06fc07    ....    MUL      r12,r6,r7
        0x00104190:    ea4f4c1c    O..L    LSR      r12,r12,#16
        0x00104194:    fb0cf70b    ....    MUL      r7,r12,r11
        0x00104198:    ebb040c7    ...@    SUBS     r0,r0,r7,LSL #19
        0x0010419c:    eb723257    r.W2    SBCS     r2,r2,r7,LSR #13
        0x001041a0:    fb03f70c    ....    MUL      r7,r3,r12
        0x001041a4:    bf34        4.      ITE      CC
        0x001041a6:    eba242c7    ...B    SUBCC    r2,r2,r7,LSL #19
        0x001041aa:    ebb242c7    ...B    SUBSCS   r2,r2,r7,LSL #19
        0x001041ae:    eb613157    a.W1    SBC      r1,r1,r7,LSR #13
        0x001041b2:    fb0cf70e    ....    MUL      r7,r12,lr
        0x001041b6:    ebb000c7    ....    SUBS     r0,r0,r7,LSL #3
        0x001041ba:    eb727257    r.Wr    SBCS     r2,r2,r7,LSR #29
        0x001041be:    fb0cf708    ....    MUL      r7,r12,r8
        0x001041c2:    bf34        4.      ITE      CC
        0x001041c4:    eba202c7    ....    SUBCC    r2,r2,r7,LSL #3
        0x001041c8:    ebb202c7    ....    SUBSCS   r2,r2,r7,LSL #3
        0x001041cc:    eb617157    a.Wq    SBC      r1,r1,r7,LSR #29
        0x001041d0:    ea4f6181    O..a    LSL      r1,r1,#26
        0x001041d4:    ea411192    A...    ORR      r1,r1,r2,LSR #6
        0x001041d8:    ea4f6282    O..b    LSL      r2,r2,#26
        0x001041dc:    ea421290    B...    ORR      r2,r2,r0,LSR #6
        0x001041e0:    ea4f6080    O..`    LSL      r0,r0,#26
        0x001041e4:    eb15254c    ..L%    ADDS     r5,r5,r12,LSL #9
        0x001041e8:    f1440400    D...    ADC      r4,r4,#0
        0x001041ec:    ea4f37d1    O..7    LSR      r7,r1,#15
        0x001041f0:    fb06fc07    ....    MUL      r12,r6,r7
        0x001041f4:    ea4f4c1c    O..L    LSR      r12,r12,#16
        0x001041f8:    fb0cf70b    ....    MUL      r7,r12,r11
        0x001041fc:    1bd2        ..      SUBS     r2,r2,r7
        0x001041fe:    fb03f70c    ....    MUL      r7,r3,r12
        0x00104202:    eb610107    a...    SBC      r1,r1,r7
        0x00104206:    fb0cf70e    ....    MUL      r7,r12,lr
        0x0010420a:    ebb04007    ...@    SUBS     r0,r0,r7,LSL #16
        0x0010420e:    eb724217    r..B    SBCS     r2,r2,r7,LSR #16
        0x00104212:    fb0cf708    ....    MUL      r7,r12,r8
        0x00104216:    bf34        4.      ITE      CC
        0x00104218:    eba24207    ...B    SUBCC    r2,r2,r7,LSL #16
        0x0010421c:    ebb24207    ...B    SUBSCS   r2,r2,r7,LSL #16
        0x00104220:    eb614117    a..A    SBC      r1,r1,r7,LSR #16
        0x00104224:    ea4f3181    O..1    LSL      r1,r1,#14
        0x00104228:    ea414192    A..A    ORR      r1,r1,r2,LSR #18
        0x0010422c:    ea4f3282    O..2    LSL      r2,r2,#14
        0x00104230:    ea424290    B..B    ORR      r2,r2,r0,LSR #18
        0x00104234:    ea4f3080    O..0    LSL      r0,r0,#14
        0x00104238:    ea4f760c    O..v    LSL      r6,r12,#28
        0x0010423c:    eb15151c    ....    ADDS     r5,r5,r12,LSR #4
        0x00104240:    f1440400    D...    ADC      r4,r4,#0
        0x00104244:    ea484303    H..C    ORR      r3,r8,r3,LSL #16
        0x00104248:    ea4e480b    N..H    ORR      r8,lr,r11,LSL #16
        0x0010424c:    f04f0e00    O...    MOV      lr,#0
        0x00104250:    ebb20c08    ....    SUBS     r12,r2,r8
        0x00104254:    eb710703    q...    SBCS     r7,r1,r3
        0x00104258:    bf24        $.      ITT      CS
        0x0010425a:    4662        bF      MOVCS    r2,r12
        0x0010425c:    4639        9F      MOVCS    r1,r7
        0x0010425e:    eb4e0e0e    N...    ADC      lr,lr,lr
        0x00104262:    f04f0b00    O...    MOV      r11,#0
        0x00104266:    1800        ..      ADDS     r0,r0,r0
        0x00104268:    4152        RA      ADCS     r2,r2,r2
        0x0010426a:    4149        IA      ADCS     r1,r1,r1
        0x0010426c:    eb4b0b0b    K...    ADC      r11,r11,r11
        0x00104270:    ebb20c08    ....    SUBS     r12,r2,r8
        0x00104274:    eb710703    q...    SBCS     r7,r1,r3
        0x00104278:    f17b0b00    {...    SBCS     r11,r11,#0
        0x0010427c:    bf24        $.      ITT      CS
        0x0010427e:    4662        bF      MOVCS    r2,r12
        0x00104280:    4639        9F      MOVCS    r1,r7
        0x00104282:    eb4e0e0e    N...    ADC      lr,lr,lr
        0x00104286:    f04f0b00    O...    MOV      r11,#0
        0x0010428a:    1800        ..      ADDS     r0,r0,r0
        0x0010428c:    4152        RA      ADCS     r2,r2,r2
        0x0010428e:    4149        IA      ADCS     r1,r1,r1
        0x00104290:    eb4b0b0b    K...    ADC      r11,r11,r11
        0x00104294:    ebb20c08    ....    SUBS     r12,r2,r8
        0x00104298:    eb710703    q...    SBCS     r7,r1,r3
        0x0010429c:    f17b0b00    {...    SBCS     r11,r11,#0
        0x001042a0:    bf24        $.      ITT      CS
        0x001042a2:    4662        bF      MOVCS    r2,r12
        0x001042a4:    4639        9F      MOVCS    r1,r7
        0x001042a6:    eb4e0e0e    N...    ADC      lr,lr,lr
        0x001042aa:    ea510702    Q...    ORRS     r7,r1,r2
        0x001042ae:    bf18        ..      IT       NE
        0x001042b0:    f0460601    F...    ORRNE    r6,r6,#1
        0x001042b4:    eb16760e    ...v    ADDS     r6,r6,lr,LSL #28
        0x001042b8:    f1550200    U...    ADCS     r2,r5,#0
        0x001042bc:    f1540100    T...    ADCS     r1,r4,#0
        0x001042c0:    d503        ..      BPL      0x1042ca ; __btod_div_common + 674
        0x001042c2:    e8bd0189    ....    POP      {r0,r3,r7,r8}
        0x001042c6:    e8bd8800    ....    POP      {r11,pc}
        0x001042ca:    e8bd0189    ....    POP      {r0,r3,r7,r8}
        0x001042ce:    e8bd4800    ...H    POP      {r11,lr}
        0x001042d2:    19b6        ..      ADDS     r6,r6,r6
        0x001042d4:    4152        RA      ADCS     r2,r2,r2
        0x001042d6:    eb410101    A...    ADC      r1,r1,r1
        0x001042da:    f1a30301    ....    SUB      r3,r3,#1
        0x001042de:    4770        pG      BX       lr
    $d
        0x001042e0:    7e7f8080    ...~    DCD    2122285184
        0x001042e4:    7a7b7c7d    }|{z    DCD    2054913149
        0x001042e8:    76777879    yxwv    DCD    1987541113
        0x001042ec:    73747576    vuts    DCD    1937012086
        0x001042f0:    70717172    rqqp    DCD    1886482802
        0x001042f4:    6d6e6e6f    onnm    DCD    1835953775
        0x001042f8:    6a6b6c6c    llkj    DCD    1785425004
        0x001042fc:    6868696a    jihh    DCD    1751673194
        0x00104300:    65666667    gffe    DCD    1701209703
        0x00104304:    63636464    ddcc    DCD    1667458148
        0x00104308:    60616162    baa`    DCD    1616994658
        0x0010430c:    5e5f5f60    `__^    DCD    1583308640
        0x00104310:    5c5d5d5e    ^]]\    DCD    1549622622
        0x00104314:    5a5b5b5c    \[[Z    DCD    1515936604
        0x00104318:    5859595a    ZYYX    DCD    1482250586
        0x0010431c:    56575758    XWWV    DCD    1448564568
        0x00104320:    55555556    VUUU    DCD    1431655766
        0x00104324:    53535454    TTSS    DCD    1397970004
        0x00104328:    51525252    RRRQ    DCD    1364349522
        0x0010432c:    50505051    QPPP    DCD    1347440721
        0x00104330:    4e4f4f4f    OOON    DCD    1313820495
        0x00104334:    4d4d4d4e    NMMM    DCD    1296911694
        0x00104338:    4b4c4c4c    LLLK    DCD    1263291468
        0x0010433c:    4a4a4b4b    KKJJ    DCD    1246382923
        0x00104340:    4949494a    JIII    DCD    1229539658
        0x00104344:    47484848    HHHG    DCD    1195919432
        0x00104348:    46474747    GGGF    DCD    1179076423
        0x0010434c:    45454646    FFEE    DCD    1162167878
        0x00104350:    44444445    EDDD    DCD    1145324613
        0x00104354:    43434344    DCCC    DCD    1128481604
        0x00104358:    42424243    CBBB    DCD    1111638595
        0x0010435c:    41414142    BAAA    DCD    1094795586
    $t
    CL$$btod_e2e
    _e2e
        0x00104360:    469c        .F      MOV      r12,r3
        0x00104362:    2b00        .+      CMP      r3,#0
        0x00104364:    d430        0.      BMI      0x1043c8 ; _e2e + 104
        0x00104366:    0077        w.      LSLS     r7,r6,#1
        0x00104368:    d02b        +.      BEQ      0x1043c2 ; _e2e + 98
        0x0010436a:    ea4f0737    O.7.    RRX      r7,r7
        0x0010436e:    b51c        ..      PUSH     {r2-r4,lr}
        0x00104370:    b403        ..      PUSH     {r0,r1}
        0x00104372:    f04f0010    O...    MOV      r0,#0x10
        0x00104376:    f04f0110    O...    MOV      r1,#0x10
        0x0010437a:    f1ba0f00    ....    CMP      r10,#0
        0x0010437e:    d006        ..      BEQ      0x10438e ; _e2e + 46
        0x00104380:    f1bc0f00    ....    CMP      r12,#0
        0x00104384:    bfdc        ..      ITT      LE
        0x00104386:    f0400008    @...    ORRLE    r0,r0,#8
        0x0010438a:    f0400108    @...    ORRLE    r1,r0,#8
        0x0010438e:    f04f0000    O...    MOV      r0,#0
        0x00104392:    bc0f        ..      POP      {r0-r3}
        0x00104394:    e8bd4010    ...@    POP      {r4,lr}
        0x00104398:    f10b0b01    ....    ADD      r11,r11,#1
        0x0010439c:    f1bb0f01    ....    CMP      r11,#1
        0x001043a0:    bf08        ..      IT       EQ
        0x001043a2:    ea5f0717    _...    LSRSEQ   r7,r7,#32
        0x001043a6:    bf22        ".      ITTT     CS
        0x001043a8:    f1120201    ....    ADDSCS   r2,r2,#1
        0x001043ac:    f1110101    ....    ADDSCS   r1,r1,#1
        0x001043b0:    f04f4100    O..A    MOVCS    r1,#0x80000000
        0x001043b4:    f1430300    C...    ADC      r3,r3,#0
        0x001043b8:    f0004000    ...@    AND      r0,r0,#0x80000000
        0x001043bc:    ea430000    C...    ORR      r0,r3,r0
        0x001043c0:    4770        pG      BX       lr
        0x001043c2:    d3f9        ..      BCC      0x1043b8 ; _e2e + 88
        0x001043c4:    0857        W.      LSRS     r7,r2,#1
        0x001043c6:    e7d0        ..      B        0x10436a ; _e2e + 10
        0x001043c8:    ea464606    F..F    ORR      r6,r6,r6,LSL #16
        0x001043cc:    ea4f4616    O..F    LSR      r6,r6,#16
        0x001043d0:    f1130f40    ..@.    CMN      r3,#0x40
        0x001043d4:    dd1f        ..      BLE      0x104416 ; _e2e + 182
        0x001043d6:    f1130f20    .. .    CMN      r3,#0x20
        0x001043da:    bfdf        ..      ITTTT    LE
        0x001043dc:    4316        .C      ORRLE    r6,r6,r2
        0x001043de:    460a        .F      MOVLE    r2,r1
        0x001043e0:    2100        .!      MOVLE    r1,#0
        0x001043e2:    3320         3      ADDLE    r3,r3,#0x20
        0x001043e4:    425b        [B      RSBS     r3,r3,#0
        0x001043e6:    d0be        ..      BEQ      0x104366 ; _e2e + 6
        0x001043e8:    f1c30720    .. .    RSB      r7,r3,#0x20
        0x001043ec:    ea464606    F..F    ORR      r6,r6,r6,LSL #16
        0x001043f0:    ea4f4616    O..F    LSR      r6,r6,#16
        0x001043f4:    fa02f707    ....    LSL      r7,r2,r7
        0x001043f8:    ea460607    F...    ORR      r6,r6,r7
        0x001043fc:    fa22f203    "...    LSR      r2,r2,r3
        0x00104400:    f1c30720    .. .    RSB      r7,r3,#0x20
        0x00104404:    fa01f707    ....    LSL      r7,r1,r7
        0x00104408:    ea420207    B...    ORR      r2,r2,r7
        0x0010440c:    fa21f103    !...    LSR      r1,r1,r3
        0x00104410:    f04f0300    O...    MOV      r3,#0
        0x00104414:    e7a7        ..      B        0x104366 ; _e2e + 6
        0x00104416:    ea460602    F...    ORR      r6,r6,r2
        0x0010441a:    ea464606    F..F    ORR      r6,r6,r6,LSL #16
        0x0010441e:    ea4f4616    O..F    LSR      r6,r6,#16
        0x00104422:    ea460601    F...    ORR      r6,r6,r1
        0x00104426:    bfbc        ..      ITT      LT
        0x00104428:    ea464606    F..F    ORRLT    r6,r6,r6,LSL #16
        0x0010442c:    0c36        6.      LSRLT    r6,r6,#16
        0x0010442e:    f04f0300    O...    MOV      r3,#0
        0x00104432:    f04f0200    O...    MOV      r2,#0
        0x00104436:    f04f0100    O...    MOV      r1,#0
        0x0010443a:    e794        ..      B        0x104366 ; _e2e + 6
    CL$$btod_ediv
    _btod_ediv
        0x0010443c:    e92d4c80    -..L    PUSH     {r7,r10,r11,lr}
        0x00104440:    b470        p.      PUSH     {r4-r6}
        0x00104442:    469a        .F      MOV      r10,r3
        0x00104444:    4693        .F      MOV      r11,r2
        0x00104446:    e8910038    ..8.    LDM      r1,{r3-r5}
        0x0010444a:    c807        ..      LDM      r0,{r0-r2}
        0x0010444c:    ea310c40    1.@.    BICS     r12,r1,r0,LSL #1
        0x00104450:    bf48        H.      IT       MI
        0x00104452:    ea340c43    4.C.    BICSMI   r12,r4,r3,LSL #1
        0x00104456:    d503        ..      BPL      0x104460 ; _btod_ediv + 36
        0x00104458:    f7fffde6    ....    BL       __btod_div_common ; 0x104028
        0x0010445c:    f7ffff80    ....    BL       _e2e ; 0x104360
        0x00104460:    bcf0        ..      POP      {r4-r7}
        0x00104462:    e8bd8c00    ....    POP      {r10,r11,pc}
    CL$$btod_emul
    _btod_emul
        0x00104466:    e92d4c80    -..L    PUSH     {r7,r10,r11,lr}
        0x0010446a:    b470        p.      PUSH     {r4-r6}
        0x0010446c:    469a        .F      MOV      r10,r3
        0x0010446e:    4693        .F      MOV      r11,r2
        0x00104470:    e8910038    ..8.    LDM      r1,{r3-r5}
        0x00104474:    c807        ..      LDM      r0,{r0-r2}
        0x00104476:    f0104f80    ...O    TST      r0,#0x40000000
        0x0010447a:    bf08        ..      IT       EQ
        0x0010447c:    f0134f80    ...O    TSTEQ    r3,#0x40000000
        0x00104480:    d103        ..      BNE      0x10448a ; _btod_emul + 36
        0x00104482:    f000f805    ....    BL       __btod_mult_common ; 0x104490
        0x00104486:    f7ffff6b    ..k.    BL       _e2e ; 0x104360
        0x0010448a:    bcf0        ..      POP      {r4-r7}
        0x0010448c:    e8bd8c00    ....    POP      {r10,r11,pc}
    CL$$btod_mult_common
    __btod_mult_common
        0x00104490:    f020477f     ..G    BIC      r7,r0,#0xff000000
        0x00104494:    f0234c7f    #..L    BIC      r12,r3,#0xff000000
        0x00104498:    ea800003    ....    EOR      r0,r0,r3
        0x0010449c:    f0004000    ...@    AND      r0,r0,#0x80000000
        0x001044a0:    eb07030c    ....    ADD      r3,r7,r12
        0x001044a4:    f5a3537c    ..|S    SUB      r3,r3,#0x3f00
        0x001044a8:    f1a303fe    ....    SUB      r3,r3,#0xfe
        0x001044ac:    f0920f00    ....    TEQ      r2,#0
        0x001044b0:    f00080b3    ....    BEQ.W    0x10461a ; __btod_mult_common + 394
        0x001044b4:    f0950f00    ....    TEQ      r5,#0
        0x001044b8:    f0008077    ..w.    BEQ.W    0x1045aa ; __btod_mult_common + 282
        0x001044bc:    e92d4901    -..I    PUSH     {r0,r8,r11,lr}
        0x001044c0:    ea4f4011    O..@    LSR      r0,r1,#16
        0x001044c4:    ea214800    !..H    BIC      r8,r1,r0,LSL #16
        0x001044c8:    ea4f4614    O..F    LSR      r6,r4,#16
        0x001044cc:    ea244706    $..G    BIC      r7,r4,r6,LSL #16
        0x001044d0:    fb00fc06    ....    MUL      r12,r0,r6
        0x001044d4:    fb08f606    ....    MUL      r6,r8,r6
        0x001044d8:    fb07f808    ....    MUL      r8,r7,r8
        0x001044dc:    eb184806    ...H    ADDS     r8,r8,r6,LSL #16
        0x001044e0:    eb4c4c16    L..L    ADC      r12,r12,r6,LSR #16
        0x001044e4:    fb00f707    ....    MUL      r7,r0,r7
        0x001044e8:    eb184807    ...H    ADDS     r8,r8,r7,LSL #16
        0x001044ec:    eb4c4017    L..@    ADC      r0,r12,r7,LSR #16
        0x001044f0:    ea4f4b12    O..K    LSR      r11,r2,#16
        0x001044f4:    ea224e0b    "..N    BIC      lr,r2,r11,LSL #16
        0x001044f8:    ea4f4615    O..F    LSR      r6,r5,#16
        0x001044fc:    ea254706    %..G    BIC      r7,r5,r6,LSL #16
        0x00104500:    fb0bfc06    ....    MUL      r12,r11,r6
        0x00104504:    fb0ef606    ....    MUL      r6,lr,r6
        0x00104508:    fb07fe0e    ....    MUL      lr,r7,lr
        0x0010450c:    eb1e4e06    ...N    ADDS     lr,lr,r6,LSL #16
        0x00104510:    eb4c4c16    L..L    ADC      r12,r12,r6,LSR #16
        0x00104514:    fb0bf707    ....    MUL      r7,r11,r7
        0x00104518:    eb1e4e07    ...N    ADDS     lr,lr,r7,LSL #16
        0x0010451c:    eb4c4b17    L..K    ADC      r11,r12,r7,LSR #16
        0x00104520:    eb18080b    ....    ADDS     r8,r8,r11
        0x00104524:    f1400000    @...    ADC      r0,r0,#0
        0x00104528:    eb180b0e    ....    ADDS     r11,r8,lr
        0x0010452c:    eb580800    X...    ADCS     r8,r8,r0
        0x00104530:    f1400000    @...    ADC      r0,r0,#0
        0x00104534:    1a8f        ..      SUBS     r7,r1,r2
        0x00104536:    f04f0100    O...    MOV      r1,#0
        0x0010453a:    f04f0600    O...    MOV      r6,#0
        0x0010453e:    bf3c        <.      ITT      CC
        0x00104540:    43c9        .C      MVNCC    r1,r1
        0x00104542:    1b66        f.      SUBCC    r6,r4,r5
        0x00104544:    bf14        ..      ITE      NE
        0x00104546:    ebb50c04    ....    SUBSNE   r12,r5,r4
        0x0010454a:    2100        .!      MOVEQ    r1,#0
        0x0010454c:    bf3c        <.      ITT      CC
        0x0010454e:    43c9        .C      MVNCC    r1,r1
        0x00104550:    1bf6        ..      SUBCC    r6,r6,r7
        0x00104552:    ea4f4417    O..D    LSR      r4,r7,#16
        0x00104556:    ea274504    '..E    BIC      r5,r7,r4,LSL #16
        0x0010455a:    ea4f471c    O..G    LSR      r7,r12,#16
        0x0010455e:    ea2c4c07    ,..L    BIC      r12,r12,r7,LSL #16
        0x00104562:    fb046207    ...b    MLA      r2,r4,r7,r6
        0x00104566:    fb05f707    ....    MUL      r7,r5,r7
        0x0010456a:    fb0cf605    ....    MUL      r6,r12,r5
        0x0010456e:    eb164607    ...F    ADDS     r6,r6,r7,LSL #16
        0x00104572:    eb424217    B..B    ADC      r2,r2,r7,LSR #16
        0x00104576:    fb04fc0c    ....    MUL      r12,r4,r12
        0x0010457a:    eb16460c    ...F    ADDS     r6,r6,r12,LSL #16
        0x0010457e:    eb42421c    B..B    ADC      r2,r2,r12,LSR #16
        0x00104582:    eb1b0606    ....    ADDS     r6,r11,r6
        0x00104586:    eb580202    X...    ADCS     r2,r8,r2
        0x0010458a:    4141        AA      ADCS     r1,r1,r0
        0x0010458c:    ea4e0e8e    N...    ORR      lr,lr,lr,LSL #2
        0x00104590:    ea46069e    F...    ORR      r6,r6,lr,LSR #2
        0x00104594:    d501        ..      BPL      0x10459a ; __btod_mult_common + 266
        0x00104596:    e8bd8901    ....    POP      {r0,r8,r11,pc}
        0x0010459a:    19b6        ..      ADDS     r6,r6,r6
        0x0010459c:    4152        RA      ADCS     r2,r2,r2
        0x0010459e:    eb410101    A...    ADC      r1,r1,r1
        0x001045a2:    f1a30301    ....    SUB      r3,r3,#1
        0x001045a6:    e8bd8901    ....    POP      {r0,r8,r11,pc}
        0x001045aa:    ea4f4514    O..E    LSR      r5,r4,#16
        0x001045ae:    ea244605    $..F    BIC      r6,r4,r5,LSL #16
        0x001045b2:    ea4f4711    O..G    LSR      r7,r1,#16
        0x001045b6:    ea214c07    !..L    BIC      r12,r1,r7,LSL #16
        0x001045ba:    fb05f407    ....    MUL      r4,r5,r7
        0x001045be:    fb06f707    ....    MUL      r7,r6,r7
        0x001045c2:    fb0cf106    ....    MUL      r1,r12,r6
        0x001045c6:    eb114107    ...A    ADDS     r1,r1,r7,LSL #16
        0x001045ca:    eb444417    D..D    ADC      r4,r4,r7,LSR #16
        0x001045ce:    fb05fc0c    ....    MUL      r12,r5,r12
        0x001045d2:    eb11410c    ...A    ADDS     r1,r1,r12,LSL #16
        0x001045d6:    eb44441c    D..D    ADC      r4,r4,r12,LSR #16
        0x001045da:    ea4f4712    O..G    LSR      r7,r2,#16
        0x001045de:    ea224c07    "..L    BIC      r12,r2,r7,LSL #16
        0x001045e2:    fb05f207    ....    MUL      r2,r5,r7
        0x001045e6:    fb06f707    ....    MUL      r7,r6,r7
        0x001045ea:    fb0cf606    ....    MUL      r6,r12,r6
        0x001045ee:    eb164607    ...F    ADDS     r6,r6,r7,LSL #16
        0x001045f2:    eb424217    B..B    ADC      r2,r2,r7,LSR #16
        0x001045f6:    fb05fc0c    ....    MUL      r12,r5,r12
        0x001045fa:    eb16460c    ...F    ADDS     r6,r6,r12,LSL #16
        0x001045fe:    eb42451c    B..E    ADC      r5,r2,r12,LSR #16
        0x00104602:    186a        j.      ADDS     r2,r5,r1
        0x00104604:    f1540100    T...    ADCS     r1,r4,#0
        0x00104608:    bf48        H.      IT       MI
        0x0010460a:    4770        pG      BXMI     lr
        0x0010460c:    19b6        ..      ADDS     r6,r6,r6
        0x0010460e:    4152        RA      ADCS     r2,r2,r2
        0x00104610:    eb410101    A...    ADC      r1,r1,r1
        0x00104614:    f1a30301    ....    SUB      r3,r3,#1
        0x00104618:    4770        pG      BX       lr
        0x0010461a:    f0950f00    ....    TEQ      r5,#0
        0x0010461e:    d037        7.      BEQ      0x104690 ; __btod_mult_common + 512
        0x00104620:    ea4f4211    O..B    LSR      r2,r1,#16
        0x00104624:    ea214602    !..F    BIC      r6,r1,r2,LSL #16
        0x00104628:    ea4f4714    O..G    LSR      r7,r4,#16
        0x0010462c:    ea244c07    $..L    BIC      r12,r4,r7,LSL #16
        0x00104630:    fb02f107    ....    MUL      r1,r2,r7
        0x00104634:    fb06f707    ....    MUL      r7,r6,r7
        0x00104638:    fb0cf406    ....    MUL      r4,r12,r6
        0x0010463c:    eb144407    ...D    ADDS     r4,r4,r7,LSL #16
        0x00104640:    eb414117    A..A    ADC      r1,r1,r7,LSR #16
        0x00104644:    fb02fc0c    ....    MUL      r12,r2,r12
        0x00104648:    eb14440c    ...D    ADDS     r4,r4,r12,LSL #16
        0x0010464c:    eb41411c    A..A    ADC      r1,r1,r12,LSR #16
        0x00104650:    ea4f4715    O..G    LSR      r7,r5,#16
        0x00104654:    ea254c07    %..L    BIC      r12,r5,r7,LSL #16
        0x00104658:    fb02f507    ....    MUL      r5,r2,r7
        0x0010465c:    fb06f707    ....    MUL      r7,r6,r7
        0x00104660:    fb0cf606    ....    MUL      r6,r12,r6
        0x00104664:    eb164607    ...F    ADDS     r6,r6,r7,LSL #16
        0x00104668:    eb454517    E..E    ADC      r5,r5,r7,LSR #16
        0x0010466c:    fb02fc0c    ....    MUL      r12,r2,r12
        0x00104670:    eb16460c    ...F    ADDS     r6,r6,r12,LSL #16
        0x00104674:    eb45421c    E..B    ADC      r2,r5,r12,LSR #16
        0x00104678:    1912        ..      ADDS     r2,r2,r4
        0x0010467a:    f1510100    Q...    ADCS     r1,r1,#0
        0x0010467e:    bf48        H.      IT       MI
        0x00104680:    4770        pG      BXMI     lr
        0x00104682:    19b6        ..      ADDS     r6,r6,r6
        0x00104684:    4152        RA      ADCS     r2,r2,r2
        0x00104686:    eb410101    A...    ADC      r1,r1,r1
        0x0010468a:    f1a30301    ....    SUB      r3,r3,#1
        0x0010468e:    4770        pG      BX       lr
        0x00104690:    ea4f4514    O..E    LSR      r5,r4,#16
        0x00104694:    ea244605    $..F    BIC      r6,r4,r5,LSL #16
        0x00104698:    ea4f4711    O..G    LSR      r7,r1,#16
        0x0010469c:    ea214c07    !..L    BIC      r12,r1,r7,LSL #16
        0x001046a0:    fb05f107    ....    MUL      r1,r5,r7
        0x001046a4:    fb06f707    ....    MUL      r7,r6,r7
        0x001046a8:    fb0cf206    ....    MUL      r2,r12,r6
        0x001046ac:    eb124207    ...B    ADDS     r2,r2,r7,LSL #16
        0x001046b0:    eb414117    A..A    ADC      r1,r1,r7,LSR #16
        0x001046b4:    fb05fc0c    ....    MUL      r12,r5,r12
        0x001046b8:    eb12420c    ...B    ADDS     r2,r2,r12,LSL #16
        0x001046bc:    eb51411c    Q..A    ADCS     r1,r1,r12,LSR #16
        0x001046c0:    f04f0600    O...    MOV      r6,#0
        0x001046c4:    bf48        H.      IT       MI
        0x001046c6:    4770        pG      BXMI     lr
        0x001046c8:    1892        ..      ADDS     r2,r2,r2
        0x001046ca:    eb410101    A...    ADC      r1,r1,r1
        0x001046ce:    f1a30301    ....    SUB      r3,r3,#1
        0x001046d2:    4770        pG      BX       lr
    i.__ARM_fpclassify
    __ARM_fpclassify
        0x001046d4:    b403        ..      PUSH     {r0,r1}
        0x001046d6:    9801        ..      LDR      r0,[sp,#4]
        0x001046d8:    0041        A.      LSLS     r1,r0,#1
        0x001046da:    9800        ..      LDR      r0,[sp,#0]
        0x001046dc:    ea5020c1    P..     ORRS     r0,r0,r1,LSL #11
        0x001046e0:    bf18        ..      IT       NE
        0x001046e2:    2004        .       MOVNE    r0,#4
        0x001046e4:    0d4a        J.      LSRS     r2,r1,#21
        0x001046e6:    bf18        ..      IT       NE
        0x001046e8:    f0400001    @...    ORRNE    r0,r0,#1
        0x001046ec:    f24072ff    @..r    MOV      r2,#0x7ff
        0x001046f0:    ebb25f51    ..Q_    CMP      r2,r1,LSR #21
        0x001046f4:    bf08        ..      IT       EQ
        0x001046f6:    f0400002    @...    ORREQ    r0,r0,#2
        0x001046fa:    2801        .(      CMP      r0,#1
        0x001046fc:    bf08        ..      IT       EQ
        0x001046fe:    2005        .       MOVEQ    r0,#5
        0x00104700:    b002        ..      ADD      sp,sp,#8
        0x00104702:    4770        pG      BX       lr
    i._is_digit
    _is_digit
        0x00104704:    3830        08      SUBS     r0,r0,#0x30
        0x00104706:    280a        .(      CMP      r0,#0xa
        0x00104708:    d201        ..      BCS      0x10470e ; _is_digit + 10
        0x0010470a:    2001        .       MOVS     r0,#1
        0x0010470c:    4770        pG      BX       lr
        0x0010470e:    2000        .       MOVS     r0,#0
        0x00104710:    4770        pG      BX       lr
        0x00104712:    0000        ..      MOVS     r0,r0
    locale$$code
    _get_lc_numeric
        0x00104714:    b510        ..      PUSH     {r4,lr}
        0x00104716:    2900        .)      CMP      r1,#0
        0x00104718:    d00a        ..      BEQ      0x104730 ; _get_lc_numeric + 28
        0x0010471a:    7808        .x      LDRB     r0,[r1,#0]
        0x0010471c:    2800        .(      CMP      r0,#0
        0x0010471e:    d007        ..      BEQ      0x104730 ; _get_lc_numeric + 28
        0x00104720:    4805        .H      LDR      r0,[pc,#20] ; [0x104738] = 0x34a
        0x00104722:    4478        xD      ADD      r0,r0,pc
        0x00104724:    f7fbfddc    ....    BL       strcmp ; 0x1002e0
        0x00104728:    2800        .(      CMP      r0,#0
        0x0010472a:    d001        ..      BEQ      0x104730 ; _get_lc_numeric + 28
        0x0010472c:    2000        .       MOVS     r0,#0
        0x0010472e:    bd10        ..      POP      {r4,pc}
        0x00104730:    4802        .H      LDR      r0,[pc,#8] ; [0x10473c] = 0x342
        0x00104732:    4478        xD      ADD      r0,r0,pc
        0x00104734:    bd10        ..      POP      {r4,pc}
    $d
        0x00104736:    0000        ..      DCW    0
        0x00104738:    0000034a    J...    DCD    842
        0x0010473c:    00000342    B...    DCD    834
    $t
    locale$$code
    _get_lc_ctype
        0x00104740:    b510        ..      PUSH     {r4,lr}
        0x00104742:    2900        .)      CMP      r1,#0
        0x00104744:    d00a        ..      BEQ      0x10475c ; _get_lc_ctype + 28
        0x00104746:    7808        .x      LDRB     r0,[r1,#0]
        0x00104748:    2800        .(      CMP      r0,#0
        0x0010474a:    d007        ..      BEQ      0x10475c ; _get_lc_ctype + 28
        0x0010474c:    4805        .H      LDR      r0,[pc,#20] ; [0x104764] = 0x33a
        0x0010474e:    4478        xD      ADD      r0,r0,pc
        0x00104750:    f7fbfdc6    ....    BL       strcmp ; 0x1002e0
        0x00104754:    2800        .(      CMP      r0,#0
        0x00104756:    d001        ..      BEQ      0x10475c ; _get_lc_ctype + 28
        0x00104758:    2000        .       MOVS     r0,#0
        0x0010475a:    bd10        ..      POP      {r4,pc}
        0x0010475c:    4802        .H      LDR      r0,[pc,#8] ; [0x104768] = 0x332
        0x0010475e:    4478        xD      ADD      r0,r0,pc
        0x00104760:    bd10        ..      POP      {r4,pc}
    $d
        0x00104762:    0000        ..      DCW    0
        0x00104764:    0000033a    :...    DCD    826
        0x00104768:    00000332    2...    DCD    818
    $t
    x$fpl$fpinit
    $v0
    _fp_init
        0x0010476c:    eef10a10    ....    VMRS     r0,FPSCR
        0x00104770:    f64f71ff    O..q    MOV      r1,#0xffff
        0x00104774:    f2c031c0    ...1    MOVT     r1,#0x3c0
        0x00104778:    ea200001     ...    BIC      r0,r0,r1
        0x0010477c:    f0407040    @.@p    ORR      r0,r0,#0x3000000
        0x00104780:    eee10a10    ....    VMSR     FPSCR,r0
    __fplib_config_fpu_vfp
    __fplib_config_pureend_doubles
        0x00104784:    4770        pG      BX       lr
    x$fpl$printf1
    $v0
    _printf_fp_dec
        0x00104786:    f7fcba1d    ....    B        _printf_fp_dec_real ; 0x100bc4
    x$fpl$printf2
    $v0
    _printf_fp_hex
        0x0010478a:    f7fcbb51    ..Q.    B        _printf_fp_hex_real ; 0x100e30
    x$fpl$usenofp
    __I$use$fp
        0x0010478e:    0000        ..      MOVS     r0,r0
    $d.realdata
    .constdata
    initial_mbstate
        0x00104790:    00000000    ....    DCD    0
        0x00104794:    00000000    ....    DCD    0
    .constdata
    uc_hextab
        0x00104798:    33323130    0123    DCD    858927408
        0x0010479c:    37363534    4567    DCD    926299444
        0x001047a0:    42413938    89AB    DCD    1111570744
        0x001047a4:    46454443    CDEF    DCD    1178944579
        0x001047a8:    00583040    @0X.    DCD    5779520
    lc_hextab
        0x001047ac:    33323130    0123    DCD    858927408
        0x001047b0:    37363534    4567    DCD    926299444
        0x001047b4:    62613938    89ab    DCD    1650538808
        0x001047b8:    66656463    cdef    DCD    1717920867
        0x001047bc:    00783040    @0x.    DCD    7876672
    .constdata
    maptable
        0x001047c0:    08000004    ....    DCD    134217732
        0x001047c4:    00000000    ....    DCD    0
        0x001047c8:    02000000    ....    DCD    33554432
        0x001047cc:    00000100    ....    DCD    256
        0x001047d0:    10          .       DCB    16
    .constdata
    lc_hextab
        0x001047d1:    303132      012     DCB    48,49,50
        0x001047d4:    36353433    3456    DCD    909456435
        0x001047d8:    61393837    789a    DCD    1631139895
        0x001047dc:    65646362    bcde    DCD    1701077858
        0x001047e0:    00707866    fxp.    DCD    7370854
    uc_hextab
        0x001047e4:    33323130    0123    DCD    858927408
        0x001047e8:    37363534    4567    DCD    926299444
        0x001047ec:    42413938    89AB    DCD    1111570744
        0x001047f0:    46454443    CDEF    DCD    1178944579
        0x001047f4:    00005058    XP..    DCD    20568
    .constdata
    tenpwrs_x
        0x001047f8:    00004002    .@..    DCD    16386
        0x001047fc:    a0000000    ....    DCD    2684354560
        0x00104800:    00000000    ....    DCD    0
        0x00104804:    00004005    .@..    DCD    16389
        0x00104808:    c8000000    ....    DCD    3355443200
        0x0010480c:    00000000    ....    DCD    0
        0x00104810:    0000400c    .@..    DCD    16396
        0x00104814:    9c400000    ..@.    DCD    2621440000
        0x00104818:    00000000    ....    DCD    0
        0x0010481c:    00004019    .@..    DCD    16409
        0x00104820:    bebc2000    . ..    DCD    3200000000
        0x00104824:    00000000    ....    DCD    0
        0x00104828:    00004034    4@..    DCD    16436
        0x0010482c:    8e1bc9bf    ....    DCD    2384185791
        0x00104830:    04000000    ....    DCD    67108864
    tenpwrs_i
        0x00104834:    000040b5    .@..    DCD    16565
        0x00104838:    d0cf4b50    PK..    DCD    3503246160
        0x0010483c:    cfe20766    f...    DCD    3487696742
        0x00104840:    00000001    ....    DCD    1
        0x00104844:    0000416c    lA..    DCD    16748
        0x00104848:    aa51823e    >.Q.    DCD    2857468478
        0x0010484c:    34a7eedf    ...4    DCD    883420895
        0x00104850:    00000001    ....    DCD    1
        0x00104854:    000042d9    .B..    DCD    17113
        0x00104858:    e2a0b5dc    ....    DCD    3802183132
        0x0010485c:    971f303a    :0..    DCD    2535403578
        0x00104860:    ffffffff    ....    DCD    4294967295
        0x00104864:    000045b4    .E..    DCD    17844
        0x00104868:    c8a025fd    .%..    DCD    3365938685
        0x0010486c:    4fc1a3e9    ...O    DCD    1338090473
        0x00104870:    ffffffff    ....    DCD    4294967295
        0x00104874:    00003fff    .?..    DCD    16383
        0x00104878:    80000000    ....    DCD    2147483648
        0x0010487c:    00000000    ....    DCD    0
        0x00104880:    00003fff    .?..    DCD    16383
        0x00104884:    80000000    ....    DCD    2147483648
        0x00104888:    00000000    ....    DCD    0
    uxTopUsedPriority
        0x0010488c:    00000009    ....    DCD    9
    __stdin_name
        0x00104890:    4454533a    :STD    DCD    1146377018
        0x00104894:    4e49        IN      DCW    20041
        0x00104896:    00          .       DCB    0
    __stdout_name
        0x00104897:    3a          :       DCB    58
        0x00104898:    4f445453    STDO    DCD    1329878099
        0x0010489c:    5455        UT      DCW    21589
        0x0010489e:    00          .       DCB    0
    __stderr_name
        0x0010489f:    3a          :       DCB    58
        0x001048a0:    45445453    STDE    DCD    1162105939
        0x001048a4:    5252        RR      DCW    21074
        0x001048a6:    00          .       DCB    0
    .L.str.6.173
        0x001048a7:    0d          .       DCB    13
        0x001048a8:    6f0a0d0a    ...o    DCD    1862929674
        0x001048ac:    61726570    pera    DCD    1634887024
        0x001048b0:    676e6974    ting    DCD    1735289204
        0x001048b4:    73797320     sys    DCD    1937339168
        0x001048b8:    206d6574    tem     DCD    544040308
        0x001048bc:    65726874    thre    DCD    1701996660
        0x001048c0:    64206461    ad d    DCD    1679844449
        0x001048c4:    2e6f6d65    emo.    DCD    779054437
        0x001048c8:    2e2e2e2e    ....    DCD    774778414
        0x001048cc:    2e2e2e2e    ....    DCD    774778414
        0x001048d0:    0d2e2e2e    ....    DCD    221130286
        0x001048d4:    000a        ..      DCW    10
    .L.str.3.168
        0x001048d6:    5245        ER      DCW    21061
        0x001048d8:    3a524f52    ROR:    DCD    978472786
        0x001048dc:    616e5520     Una    DCD    1634620704
        0x001048e0:    20656c62    ble     DCD    543517794
        0x001048e4:    73206f74    to s    DCD    1931505524
        0x001048e8:    74726174    tart    DCD    1953653108
        0x001048ec:    65687420     the    DCD    1701344288
        0x001048f0:    72687420     thr    DCD    1919448096
        0x001048f4:    20646165    ead     DCD    543449445
        0x001048f8:    0a0d2e31    1...    DCD    168635953
        0x001048fc:    00          .       DCB    0
    .L.str.9.176
        0x001048fd:    455252      ERR     DCB    69,82,82
        0x00104900:    203a524f    OR:     DCD    540693071
        0x00104904:    62616e55    Unab    DCD    1650552405
        0x00104908:    7420656c    le t    DCD    1948280172
        0x0010490c:    7473206f    o st    DCD    1953701999
        0x00104910:    20747261    art     DCD    544502369
        0x00104914:    20656874    the     DCD    543516788
        0x00104918:    65726874    thre    DCD    1701996660
        0x0010491c:    32206461    ad 2    DCD    840983649
        0x00104920:    000a0d2e    ....    DCD    658734
    .L.str.165
        0x00104924:    73696854    This    DCD    1936287828
        0x00104928:    20736920     is     DCD    544434464
        0x0010492c:    65726874    thre    DCD    1701996660
        0x00104930:    30206461    ad 0    DCD    807429217
        0x00104934:    0a0d        ..      DCW    2573
        0x00104936:    00          .       DCB    0
    .L.str.5.170
        0x00104937:    54          T       DCB    84
        0x00104938:    20736968    his     DCD    544434536
        0x0010493c:    74207369    is t    DCD    1948283753
        0x00104940:    61657268    hrea    DCD    1634038376
        0x00104944:    0d322064    d 2.    DCD    221388900
        0x00104948:    000a        ..      DCW    10
    .L.str.65
        0x0010494a:    535b        [S      DCW    21339
        0x0010494c:    5d444854    THD]    DCD    1564756052
        0x00104950:    5b3a7325    %s:[    DCD    1530557221
        0x00104954:    5d626374    tcb]    DCD    1566729076
        0x00104958:    5b207825    %x [    DCD    1528854565
        0x0010495c:    63617473    stac    DCD    1667331187
        0x00104960:    78255d6b    k]%x    DCD    2015714667
        0x00104964:    3a78252d    -%x:    DCD    980952365
        0x00104968:    253a6425    %d:%    DCD    624583717
        0x0010496c:    000a0d64    d...    DCD    658788
    .L.str.1.66
        0x00104970:    4448545b    [THD    DCD    1145590875
        0x00104974:    3a73255d    ]%s:    DCD    980624733
        0x00104978:    6263745b    [tcb    DCD    1650685019
        0x0010497c:    2078255d    ]%x     DCD    544744797
        0x00104980:    6174735b    [sta    DCD    1635021659
        0x00104984:    255d6b63    ck]%    DCD    626879331
        0x00104988:    78252d78    x-%x    DCD    2015702392
        0x0010498c:    3a64253a    :%d:    DCD    979641658
        0x00104990:    0a0d6425    %d..    DCD    168649765
        0x00104994:    00          .       DCB    0
    .L.str.1.166
        0x00104995:    746872      thr     DCB    116,104,114
        0x00104998:    30646165    ead0    DCD    811884901
        0x0010499c:    5f73695f    _is_    DCD    1601399135
        0x001049a0:    6e6e7572    runn    DCD    1852732786
        0x001049a4:    0d676e69    ing.    DCD    224882281
        0x001049a8:    000a        ..      DCW    10
    .L.str.4.169
        0x001049aa:    6874        th      DCW    26740
        0x001049ac:    64616572    read    DCD    1684104562
        0x001049b0:    73695f31    1_is    DCD    1936285489
        0x001049b4:    6e75725f    _run    DCD    1853190751
        0x001049b8:    676e696e    ning    DCD    1735289198
        0x001049bc:    0a0d        ..      DCW    2573
        0x001049be:    00          .       DCB    0
    .L.str.2.54
        0x001049bf:    76          v       DCB    118
        0x001049c0:    6b736154    Task    DCD    1802723668
        0x001049c4:    72617453    Star    DCD    1918989395
        0x001049c8:    68635374    tSch    DCD    1751339892
        0x001049cc:    6c756465    edul    DCD    1819632741
        0x001049d0:    000a7265    er..    DCD    684645
    .L.str.1.53
        0x001049d4:    43767270    prvC    DCD    1131836016
        0x001049d8:    74616572    reat    DCD    1952540018
        0x001049dc:    73615465    eTas    DCD    1935758437
        0x001049e0:    000a736b    ks..    DCD    684907
    .L.str.52
        0x001049e4:    2d6e6f4e    Non-    DCD    762212174
        0x001049e8:    75636553    Secu    DCD    1969448275
        0x001049ec:    57206572    re W    DCD    1461740914
        0x001049f0:    646c726f    orld    DCD    1684828783
        0x001049f4:    61745320     Sta    DCD    1635013408
        0x001049f8:    000a7472    rt..    DCD    685170
    .L.str.123
        0x001049fc:    6369745b    [tic    DCD    1667855451
        0x00104a00:    64253a6b    k:%d    DCD    1680161387
        0x00104a04:    00202e5d    ]. .    DCD    2109021
    .L.str.3.55
        0x00104a08:    0023        #.      DCW    35
    .L.str.2.167
        0x00104a0a:    6854        Th      DCW    26708
        0x00104a0c:    64616572    read    DCD    1684104562
        0x00104a10:    0030        0.      DCW    48
    .L.str.7.174
        0x00104a12:    6854        Th      DCW    26708
        0x00104a14:    64616572    read    DCD    1684104562
        0x00104a18:    0031        1.      DCW    49
    .L.str.8.175
        0x00104a1a:    6874        th      DCW    26740
        0x00104a1c:    64616572    read    DCD    1684104562
        0x00104a20:    325f        _2      DCW    12895
        0x00104a22:    00          .       DCB    0
    .L.str.2.73
        0x00104a23:    49          I       DCB    73
        0x00104a24:    00454c44    DLE.    DCD    4541508
    .L.str.117
        0x00104a28:    20726d54    Tmr     DCD    544370004
        0x00104a2c:    00637653    Svc.    DCD    6518355
    .L.str.10.177
        0x00104a30:    65726854    Thre    DCD    1701996628
        0x00104a34:    65206461    ad e    DCD    1696621665
        0x00104a38:    20746978    xit     DCD    544500088
        0x00104a3c:    68746977    with    DCD    1752459639
        0x00104a40:    72726520     err    DCD    1920099616
        0x00104a44:    6425203a    : %d    DCD    1680154682
        0x00104a48:    00000000    ....    DCD    0
    Region$$Table$$Base
        0x00104a4c:    00104ba0    .K..    DCD    1067936
        0x00104a50:    20100000    ...     DCD    537919488
        0x00104a54:    00000004    ....    DCD    4
        0x00104a58:    001000fc    ....    DCD    1048828
        0x00104a5c:    00104bc0    .K..    DCD    1067968
        0x00104a60:    20100020     ..     DCD    537919520
        0x00104a64:    0002a020     ...    DCD    172064
        0x00104a68:    00100118    ....    DCD    1048856
    locale$$data
    Region$$Table$$Limit
        0x00104a6c:    0000001c    ....    DCD    28
    __lcnum_c_name
        0x00104a70:    00000043    C...    DCD    67
        0x00104a74:    fffffff8    ....    DCD    4294967288
    __lcnum_c_start
        0x00104a78:    0000000c    ....    DCD    12
        0x00104a7c:    0000000e    ....    DCD    14
        0x00104a80:    0000000f    ....    DCD    15
    __lcnum_c_point
        0x00104a84:    002e        ..      DCW    46
    __lcnum_c_thousands
        0x00104a86:    00          .       DCB    0
    __lcnum_c_grouping
        0x00104a87:    00          .       DCB    0
    __lcnum_c_end
    locale$$data
        0x00104a88:    00000110    ....    DCD    272
    __lcctype_c_name
        0x00104a8c:    00000043    C...    DCD    67
        0x00104a90:    fffffff8    ....    DCD    4294967288
    __lcctype_c_start
        0x00104a94:    00          .       DCB    0
    __ctype
        0x00104a95:    404040      @@@     DCB    64,64,64
        0x00104a98:    40404040    @@@@    DCD    1077952576
        0x00104a9c:    41414040    @@AA    DCD    1094795328
        0x00104aa0:    40414141    AAA@    DCD    1078018369
        0x00104aa4:    40404040    @@@@    DCD    1077952576
        0x00104aa8:    40404040    @@@@    DCD    1077952576
        0x00104aac:    40404040    @@@@    DCD    1077952576
        0x00104ab0:    40404040    @@@@    DCD    1077952576
        0x00104ab4:    02020540    @...    DCD    33686848
        0x00104ab8:    02020202    ....    DCD    33686018
        0x00104abc:    02020202    ....    DCD    33686018
        0x00104ac0:    02020202    ....    DCD    33686018
        0x00104ac4:    20202002    .       DCD    538976258
        0x00104ac8:    20202020            DCD    538976288
        0x00104acc:    02202020       .    DCD    35659808
        0x00104ad0:    02020202    ....    DCD    33686018
        0x00104ad4:    90900202    ....    DCD    2425356802
        0x00104ad8:    90909090    ....    DCD    2425393296
        0x00104adc:    10101010    ....    DCD    269488144
        0x00104ae0:    10101010    ....    DCD    269488144
        0x00104ae4:    10101010    ....    DCD    269488144
        0x00104ae8:    10101010    ....    DCD    269488144
        0x00104aec:    10101010    ....    DCD    269488144
        0x00104af0:    02020202    ....    DCD    33686018
        0x00104af4:    88880202    ....    DCD    2290614786
        0x00104af8:    88888888    ....    DCD    2290649224
        0x00104afc:    08080808    ....    DCD    134744072
        0x00104b00:    08080808    ....    DCD    134744072
        0x00104b04:    08080808    ....    DCD    134744072
        0x00104b08:    08080808    ....    DCD    134744072
        0x00104b0c:    08080808    ....    DCD    134744072
        0x00104b10:    02020202    ....    DCD    33686018
        0x00104b14:    00000040    @...    DCD    64
        0x00104b18:    00000000    ....    DCD    0
        0x00104b1c:    00000000    ....    DCD    0
        0x00104b20:    00000000    ....    DCD    0
        0x00104b24:    00000000    ....    DCD    0
        0x00104b28:    00000000    ....    DCD    0
        0x00104b2c:    00000000    ....    DCD    0
        0x00104b30:    00000000    ....    DCD    0
        0x00104b34:    00000000    ....    DCD    0
        0x00104b38:    00000000    ....    DCD    0
        0x00104b3c:    00000000    ....    DCD    0
        0x00104b40:    00000000    ....    DCD    0
        0x00104b44:    00000000    ....    DCD    0
        0x00104b48:    00000000    ....    DCD    0
        0x00104b4c:    00000000    ....    DCD    0
        0x00104b50:    00000000    ....    DCD    0
        0x00104b54:    00000000    ....    DCD    0
        0x00104b58:    00000000    ....    DCD    0
        0x00104b5c:    00000000    ....    DCD    0
        0x00104b60:    00000000    ....    DCD    0
        0x00104b64:    00000000    ....    DCD    0
        0x00104b68:    00000000    ....    DCD    0
        0x00104b6c:    00000000    ....    DCD    0
        0x00104b70:    00000000    ....    DCD    0
        0x00104b74:    00000000    ....    DCD    0
        0x00104b78:    00000000    ....    DCD    0
        0x00104b7c:    00000000    ....    DCD    0
        0x00104b80:    00000000    ....    DCD    0
        0x00104b84:    00000000    ....    DCD    0
        0x00104b88:    00000000    ....    DCD    0
        0x00104b8c:    00000000    ....    DCD    0
        0x00104b90:    00000000    ....    DCD    0
        0x00104b94:    00000000    ....    DCD    0
    __lcctype_c_end

** Section #5 'ER_IROM_NS_UNPRIVILEGED_ALIGN' (SHT_NOBITS) [SHF_ALLOC + SHF_WRITE]
    Size   : 0 bytes (alignment 32)
    Address: 0x00104ba0


** Section #6 'ER_IRAM_NS_PRIVILEGED_ALIGN' (SHT_NOBITS) [SHF_ALLOC + SHF_WRITE]
    Size   : 0 bytes (alignment 32)
    Address: 0x20100000


** Section #7 'ER_IRAM_NS_UNPRIVILEGED' (SHT_PROGBITS) [SHF_ALLOC + SHF_WRITE]
    Size   : 4 bytes (alignment 32)
    Address: 0x20100000


** Section #8 'ER_IRAM_NS_ZI_UNPRIVILEGED' (SHT_NOBITS) [SHF_ALLOC + SHF_WRITE]
    Size   : 172064 bytes (alignment 32)
    Address: 0x20100020


** Section #9 'ER_IRAM_NS_UNPRIVILEGED_ALIGN' (SHT_NOBITS) [SHF_ALLOC + SHF_WRITE]
    Size   : 0 bytes (alignment 32)
    Address: 0x2012a040


** Section #10 '.debug_abbrev' (SHT_PROGBITS)
    Size   : 1217 bytes


** Section #11 '.debug_frame' (SHT_PROGBITS)
    Size   : 4856 bytes


** Section #12 '.debug_info' (SHT_PROGBITS)
    Size   : 14827 bytes


** Section #13 '.debug_line' (SHT_PROGBITS)
    Size   : 12810 bytes


** Section #14 '.debug_str' (SHT_PROGBITS)
    Size   : 8984 bytes


** Section #15 '.debug_ranges' (SHT_PROGBITS)
    Size   : 832 bytes


** Section #16 '.symtab' (SHT_SYMTAB)
    Size   : 13120 bytes (alignment 4)
    String table #17 '.strtab'
    Last local symbol no. 584


** Section #17 '.strtab' (SHT_STRTAB)
    Size   : 11636 bytes


** Section #18 '.note' (SHT_NOTE)
    Size   : 52 bytes (alignment 4)


** Section #19 '.comment' (SHT_PROGBITS)
    Size   : 2740 bytes


** Section #20 '.shstrtab' (SHT_STRTAB)
    Size   : 428 bytes


address     size       variable name                            type
0x20100080  0x80       _bk_no_secure_printf_buff                array[128] of char

address     size       variable name                            type
0x20100100  0x4        pxCurrentTCB                             volatile pointer to TCB_t

address     size       variable name                            type
0x20100248  0x4        pxDelayedTaskList                        volatile pointer to List_t

address     size       variable name                            type
0x2010024c  0x4        pxOverflowDelayedTaskList                volatile pointer to List_t

address     size       variable name                            type
0x20100110  0xc8       pxReadyTasksLists                        array[10] of List_t

address     size       variable name                            type
0x201001d8  0x4        uxCurrentNumberOfTasks                   volatile UBaseType_t

address     size       variable name                            type
0x20100250  0x4        uxDeletedTasksWaitingCleanUp             volatile UBaseType_t

address     size       variable name                            type
0x20100104  0x4        uxSchedulerSuspended                     volatile UBaseType_t

address     size       variable name                            type
0x201001e0  0x4        uxTaskNumber                             UBaseType_t

address     size       variable name                            type
0x2010010c  0x4        uxTopReadyPriority                       volatile UBaseType_t

address     size       variable name                            type
0x0010488c  0x4        uxTopUsedPriority                        const volatile UBaseType_t

address     size       variable name                            type
0x201001e4  0x14       xDelayedTaskList1                        List_t
0x201001e4  0x4        xDelayedTaskList1.uxNumberOfItems        volatile UBaseType_t
0x201001e8  0x4        xDelayedTaskList1.pxIndex                pointer to ListItem_t
0x201001ec  0xc        xDelayedTaskList1.xListEnd               MiniListItem_t
0x201001ec  0x4        xDelayedTaskList1.xListEnd.xItemValue    TickType_t
0x201001f0  0x4        xDelayedTaskList1.xListEnd.pxNext        pointer to xLIST_ITEM
0x201001f4  0x4        xDelayedTaskList1.xListEnd.pxPrevious    pointer to xLIST_ITEM

address     size       variable name                            type
0x201001f8  0x14       xDelayedTaskList2                        List_t
0x201001f8  0x4        xDelayedTaskList2.uxNumberOfItems        volatile UBaseType_t
0x201001fc  0x4        xDelayedTaskList2.pxIndex                pointer to ListItem_t
0x20100200  0xc        xDelayedTaskList2.xListEnd               MiniListItem_t
0x20100200  0x4        xDelayedTaskList2.xListEnd.xItemValue    TickType_t
0x20100204  0x4        xDelayedTaskList2.xListEnd.pxNext        pointer to xLIST_ITEM
0x20100208  0x4        xDelayedTaskList2.xListEnd.pxPrevious    pointer to xLIST_ITEM

address     size       variable name                            type
0x20100264  0x4        xIdleTaskHandle                          TaskHandle_t

address     size       variable name                            type
0x20100254  0x4        xNextTaskUnblockTime                     volatile TickType_t

address     size       variable name                            type
0x20100260  0x4        xNumOfOverflows                          volatile BaseType_t

address     size       variable name                            type
0x2010025c  0x4        xPendedTicks                             volatile TickType_t

address     size       variable name                            type
0x2010020c  0x14       xPendingReadyList                        List_t
0x2010020c  0x4        xPendingReadyList.uxNumberOfItems        volatile UBaseType_t
0x20100210  0x4        xPendingReadyList.pxIndex                pointer to ListItem_t
0x20100214  0xc        xPendingReadyList.xListEnd               MiniListItem_t
0x20100214  0x4        xPendingReadyList.xListEnd.xItemValue    TickType_t
0x20100218  0x4        xPendingReadyList.xListEnd.pxNext        pointer to xLIST_ITEM
0x2010021c  0x4        xPendingReadyList.xListEnd.pxPrevious    pointer to xLIST_ITEM

address     size       variable name                            type
0x201001dc  0x4        xSchedulerRunning                        volatile BaseType_t

address     size       variable name                            type
0x20100234  0x14       xSuspendedTaskList                       List_t
0x20100234  0x4        xSuspendedTaskList.uxNumberOfItems       volatile UBaseType_t
0x20100238  0x4        xSuspendedTaskList.pxIndex               pointer to ListItem_t
0x2010023c  0xc        xSuspendedTaskList.xListEnd              MiniListItem_t
0x2010023c  0x4        xSuspendedTaskList.xListEnd.xItemValue   TickType_t
0x20100240  0x4        xSuspendedTaskList.xListEnd.pxNext       pointer to xLIST_ITEM
0x20100244  0x4        xSuspendedTaskList.xListEnd.pxPrevious   pointer to xLIST_ITEM

address     size       variable name                            type
0x20100220  0x14       xTasksWaitingTermination                 List_t
0x20100220  0x4        xTasksWaitingTermination.uxNumberOfItems volatile UBaseType_t
0x20100224  0x4        xTasksWaitingTermination.pxIndex         pointer to ListItem_t
0x20100228  0xc        xTasksWaitingTermination.xListEnd        MiniListItem_t
0x20100228  0x4        xTasksWaitingTermination.xListEnd.xItemValue TickType_t
0x2010022c  0x4        xTasksWaitingTermination.xListEnd.pxNext pointer to xLIST_ITEM
0x20100230  0x4        xTasksWaitingTermination.xListEnd.pxPrevious pointer to xLIST_ITEM

address     size       variable name                            type
0x20100258  0x4        xTickCount                               volatile TickType_t

address     size       variable name                            type
0x20100108  0x4        xYieldPending                            volatile BaseType_t

address     size       variable name                            type
0x20100274  0x4        pxCurrentTimerList                       pointer to List_t

address     size       variable name                            type
0x20100270  0x4        pxOverflowTimerList                      pointer to List_t

address     size       variable name                            type
0x2010027c  0x14       xActiveTimerList1                        List_t
0x2010027c  0x4        xActiveTimerList1.uxNumberOfItems        volatile UBaseType_t
0x20100280  0x4        xActiveTimerList1.pxIndex                pointer to ListItem_t
0x20100284  0xc        xActiveTimerList1.xListEnd               MiniListItem_t
0x20100284  0x4        xActiveTimerList1.xListEnd.xItemValue    TickType_t
0x20100288  0x4        xActiveTimerList1.xListEnd.pxNext        pointer to xLIST_ITEM
0x2010028c  0x4        xActiveTimerList1.xListEnd.pxPrevious    pointer to xLIST_ITEM

address     size       variable name                            type
0x20100290  0x14       xActiveTimerList2                        List_t
0x20100290  0x4        xActiveTimerList2.uxNumberOfItems        volatile UBaseType_t
0x20100294  0x4        xActiveTimerList2.pxIndex                pointer to ListItem_t
0x20100298  0xc        xActiveTimerList2.xListEnd               MiniListItem_t
0x20100298  0x4        xActiveTimerList2.xListEnd.xItemValue    TickType_t
0x2010029c  0x4        xActiveTimerList2.xListEnd.pxNext        pointer to xLIST_ITEM
0x201002a0  0x4        xActiveTimerList2.xListEnd.pxPrevious    pointer to xLIST_ITEM

address     size       variable name                            type
0x20100268  0x4        xTimerQueue                              QueueHandle_t

address     size       variable name                            type
0x2010026c  0x4        xTimerTaskHandle                         TaskHandle_t

address     size       variable name                            type
0x20100000  0x4        ulCriticalNesting                        volatile uint32_t

address     size       variable name                            type
0x20100344  0x4        xSecureContext                           volatile SecureContextHandle_t

address     size       variable name                            type
0x20100820  0x4        pxEnd                                    pointer to BlockLink_t

address     size       variable name                            type
0x2010083c  0x19000    ucHeap                                   array[102400] of uint8_t

address     size       variable name                            type
0x20100828  0x4        xFreeBytesRemaining                      size_t

address     size       variable name                            type
0x20100834  0x4        xMinimumEverFreeBytesRemaining           size_t

address     size       variable name                            type
0x20100838  0x4        xNumberOfSuccessfulAllocations           size_t

address     size       variable name                            type
0x2011983c  0x4        xNumberOfSuccessfulFrees                 size_t

address     size       variable name                            type
0x2010082c  0x8        xStart                                   BlockLink_t
0x2010082c  0x4        xStart.pxNextFreeBlock                   pointer to A_BLOCK_LINK
0x20100830  0x4        xStart.xBlockSize                        size_t

address     size       variable name                            type
0x0010489f  0x8        __stderr_name                            array[8] of const char

address     size       variable name                            type
0x00104890  0x7        __stdin_name                             array[7] of const char

address     size       variable name                            type
0x00104897  0x8        __stdout_name                            array[8] of const char

